---
triple:          'arm64-apple-darwin'
binary-path:     editor
relocations:
  - { offsetInCU: 0x18D49, offset: 0x18D49, size: 0x8, addend: 0x0, symName: __ZNSt3__112__to_addressB8ue170006IN2sf6VertexEEEPT_S4_, symObjAddr: 0x590, symBinAddr: 0x100001414, symSize: 0x14 }
  - { offsetInCU: 0x18D7E, offset: 0x18D7E, size: 0x8, addend: 0x0, symName: __ZNSt3__119__libcpp_deallocateB8ue170006EPvmm, symObjAddr: 0x66C, symBinAddr: 0x1000014F0, symSize: 0x60 }
  - { offsetInCU: 0x18DE3, offset: 0x18DE3, size: 0x8, addend: 0x0, symName: __ZNSt3__124__is_overaligned_for_newB8ue170006Em, symObjAddr: 0x6CC, symBinAddr: 0x100001550, symSize: 0x20 }
  - { offsetInCU: 0x18E11, offset: 0x18E11, size: 0x8, addend: 0x0, symName: __ZNSt3__127__do_deallocate_handle_sizeB8ue170006IJSt11align_val_tEEEvPvmDpT_, symObjAddr: 0x6EC, symBinAddr: 0x100001570, symSize: 0x30 }
  - { offsetInCU: 0x18E64, offset: 0x18E64, size: 0x8, addend: 0x0, symName: __ZNSt3__127__do_deallocate_handle_sizeB8ue170006IJEEEvPvmDpT_, symObjAddr: 0x71C, symBinAddr: 0x1000015A0, symSize: 0x28 }
  - { offsetInCU: 0x18EA2, offset: 0x18EA2, size: 0x8, addend: 0x0, symName: __ZNSt3__124__libcpp_operator_deleteB8ue170006IJPvSt11align_val_tEEEvDpT_, symObjAddr: 0x744, symBinAddr: 0x1000015C8, symSize: 0x2C }
  - { offsetInCU: 0x18EEB, offset: 0x18EEB, size: 0x8, addend: 0x0, symName: __ZNSt3__124__libcpp_operator_deleteB8ue170006IJPvEEEvDpT_, symObjAddr: 0x770, symBinAddr: 0x1000015F4, symSize: 0x24 }
  - { offsetInCU: 0x18F20, offset: 0x18F20, size: 0x8, addend: 0x0, symName: __ZNSt3__112__to_addressB8ue170006INS_10unique_ptrI6EntityNS_14default_deleteIS2_EEEEEEPT_S7_, symObjAddr: 0xB88, symBinAddr: 0x100001A0C, symSize: 0x14 }
  - { offsetInCU: 0x18FE2, offset: 0x18FE2, size: 0x8, addend: 0x0, symName: __ZNSt3__17launderB8ue170006INS_4pairIKNS_12basic_stringIcNS_11char_traitsIcEENS_9allocatorIcEEEES7_EEEEPT_SB_, symObjAddr: 0x1138, symBinAddr: 0x100001FBC, symSize: 0x24 }
  - { offsetInCU: 0x19019, offset: 0x19019, size: 0x8, addend: 0x0, symName: __ZNSt3__19__launderB8ue170006INS_4pairIKNS_12basic_stringIcNS_11char_traitsIcEENS_9allocatorIcEEEES7_EEEEPT_SB_, symObjAddr: 0x115C, symBinAddr: 0x100001FE0, symSize: 0x14 }
  - { offsetInCU: 0x19083, offset: 0x19083, size: 0x8, addend: 0x0, symName: __ZNSt3__112__to_addressB8ue170006I16SpriteDefinitionEEPT_S3_, symObjAddr: 0x15A4, symBinAddr: 0x100002428, symSize: 0x14 }
  - { offsetInCU: 0x190B8, offset: 0x190B8, size: 0x8, addend: 0x0, symName: __ZNSt3__112__to_addressB8ue170006IN2sf14RectangleShapeEEEPT_S4_, symObjAddr: 0x1CAC, symBinAddr: 0x100002B30, symSize: 0x14 }
  - { offsetInCU: 0x20CD4, offset: 0x20CD4, size: 0x8, addend: 0x0, symName: _main, symObjAddr: 0x0, symBinAddr: 0x100000E84, symSize: 0x6C }
  - { offsetInCU: 0x2151E, offset: 0x2151E, size: 0x8, addend: 0x0, symName: __ZN6EditorD1Ev, symObjAddr: 0x6C, symBinAddr: 0x100000EF0, symSize: 0x2C }
  - { offsetInCU: 0x2154A, offset: 0x2154A, size: 0x8, addend: 0x0, symName: __ZN6EditorD2Ev, symObjAddr: 0x98, symBinAddr: 0x100000F1C, symSize: 0x98 }
  - { offsetInCU: 0x21576, offset: 0x21576, size: 0x8, addend: 0x0, symName: __ZNSt3__16vectorIN2sf6VertexENS_9allocatorIS2_EEED1B8ue170006Ev, symObjAddr: 0x130, symBinAddr: 0x100000FB4, symSize: 0x2C }
  - { offsetInCU: 0x215A0, offset: 0x215A0, size: 0x8, addend: 0x0, symName: __ZNSt3__16vectorINS_10unique_ptrI6EntityNS_14default_deleteIS2_EEEENS_9allocatorIS5_EEED1B8ue170006Ev, symObjAddr: 0x15C, symBinAddr: 0x100000FE0, symSize: 0x2C }
  - { offsetInCU: 0x215CA, offset: 0x215CA, size: 0x8, addend: 0x0, symName: __ZNSt3__16vectorIN2sf14RectangleShapeENS_9allocatorIS2_EEED1B8ue170006Ev, symObjAddr: 0x188, symBinAddr: 0x10000100C, symSize: 0x2C }
  - { offsetInCU: 0x215F4, offset: 0x215F4, size: 0x8, addend: 0x0, symName: __ZN2sf14RectangleShapeD1Ev, symObjAddr: 0x1B4, symBinAddr: 0x100001038, symSize: 0x2C }
  - { offsetInCU: 0x21620, offset: 0x21620, size: 0x8, addend: 0x0, symName: __ZN13EntityManagerD1Ev, symObjAddr: 0x1E0, symBinAddr: 0x100001064, symSize: 0x2C }
  - { offsetInCU: 0x2164C, offset: 0x2164C, size: 0x8, addend: 0x0, symName: __ZNSt3__16vectorIN2sf6VertexENS_9allocatorIS2_EEED2B8ue170006Ev, symObjAddr: 0x20C, symBinAddr: 0x100001090, symSize: 0x44 }
  - { offsetInCU: 0x21676, offset: 0x21676, size: 0x8, addend: 0x0, symName: __ZNSt3__16vectorIN2sf6VertexENS_9allocatorIS2_EEE16__destroy_vectorC1B8ue170006ERS5_, symObjAddr: 0x250, symBinAddr: 0x1000010D4, symSize: 0x34 }
  - { offsetInCU: 0x216AF, offset: 0x216AF, size: 0x8, addend: 0x0, symName: __ZNSt3__16vectorIN2sf6VertexENS_9allocatorIS2_EEE16__destroy_vectorclB8ue170006Ev, symObjAddr: 0x290, symBinAddr: 0x100001114, symSize: 0x90 }
  - { offsetInCU: 0x216D5, offset: 0x216D5, size: 0x8, addend: 0x0, symName: __ZNSt3__16vectorIN2sf6VertexENS_9allocatorIS2_EEE16__destroy_vectorC2B8ue170006ERS5_, symObjAddr: 0x320, symBinAddr: 0x1000011A4, symSize: 0x20 }
  - { offsetInCU: 0x2170E, offset: 0x2170E, size: 0x8, addend: 0x0, symName: __ZNSt3__16vectorIN2sf6VertexENS_9allocatorIS2_EEE7__clearB8ue170006Ev, symObjAddr: 0x340, symBinAddr: 0x1000011C4, symSize: 0x28 }
  - { offsetInCU: 0x21734, offset: 0x21734, size: 0x8, addend: 0x0, symName: __ZNKSt3__16vectorIN2sf6VertexENS_9allocatorIS2_EEE17__annotate_deleteB8ue170006Ev, symObjAddr: 0x368, symBinAddr: 0x1000011EC, symSize: 0xD4 }
  - { offsetInCU: 0x2175A, offset: 0x2175A, size: 0x8, addend: 0x0, symName: __ZNSt3__116allocator_traitsINS_9allocatorIN2sf6VertexEEEE10deallocateB8ue170006ERS4_PS3_m, symObjAddr: 0x43C, symBinAddr: 0x1000012C0, symSize: 0x34 }
  - { offsetInCU: 0x2179C, offset: 0x2179C, size: 0x8, addend: 0x0, symName: __ZNSt3__16vectorIN2sf6VertexENS_9allocatorIS2_EEE7__allocB8ue170006Ev, symObjAddr: 0x470, symBinAddr: 0x1000012F4, symSize: 0x28 }
  - { offsetInCU: 0x217C2, offset: 0x217C2, size: 0x8, addend: 0x0, symName: __ZNKSt3__16vectorIN2sf6VertexENS_9allocatorIS2_EEE8capacityB8ue170006Ev, symObjAddr: 0x498, symBinAddr: 0x10000131C, symSize: 0x40 }
  - { offsetInCU: 0x217E8, offset: 0x217E8, size: 0x8, addend: 0x0, symName: __ZNSt3__16vectorIN2sf6VertexENS_9allocatorIS2_EEE22__base_destruct_at_endB8ue170006EPS2_, symObjAddr: 0x4D8, symBinAddr: 0x10000135C, symSize: 0x8C }
  - { offsetInCU: 0x2182C, offset: 0x2182C, size: 0x8, addend: 0x0, symName: __ZNSt3__116allocator_traitsINS_9allocatorIN2sf6VertexEEEE7destroyB8ue170006IS3_vEEvRS4_PT_, symObjAddr: 0x564, symBinAddr: 0x1000013E8, symSize: 0x2C }
  - { offsetInCU: 0x21869, offset: 0x21869, size: 0x8, addend: 0x0, symName: __ZNSt3__19allocatorIN2sf6VertexEE7destroyB8ue170006EPS2_, symObjAddr: 0x5A4, symBinAddr: 0x100001428, symSize: 0x14 }
  - { offsetInCU: 0x2189D, offset: 0x2189D, size: 0x8, addend: 0x0, symName: __ZNKSt3__16vectorIN2sf6VertexENS_9allocatorIS2_EEE31__annotate_contiguous_containerB8ue170006EPKvS7_S7_S7_, symObjAddr: 0x5B8, symBinAddr: 0x10000143C, symSize: 0x20 }
  - { offsetInCU: 0x218F3, offset: 0x218F3, size: 0x8, addend: 0x0, symName: __ZNKSt3__16vectorIN2sf6VertexENS_9allocatorIS2_EEE4dataB8ue170006Ev, symObjAddr: 0x5D8, symBinAddr: 0x10000145C, symSize: 0x28 }
  - { offsetInCU: 0x21919, offset: 0x21919, size: 0x8, addend: 0x0, symName: __ZNKSt3__16vectorIN2sf6VertexENS_9allocatorIS2_EEE4sizeB8ue170006Ev, symObjAddr: 0x600, symBinAddr: 0x100001484, symSize: 0x28 }
  - { offsetInCU: 0x2193F, offset: 0x2193F, size: 0x8, addend: 0x0, symName: __ZNSt3__19allocatorIN2sf6VertexEE10deallocateB8ue170006EPS2_m, symObjAddr: 0x628, symBinAddr: 0x1000014AC, symSize: 0x44 }
  - { offsetInCU: 0x21981, offset: 0x21981, size: 0x8, addend: 0x0, symName: __ZNSt3__117__compressed_pairIPN2sf6VertexENS_9allocatorIS2_EEE6secondB8ue170006Ev, symObjAddr: 0x794, symBinAddr: 0x100001618, symSize: 0x24 }
  - { offsetInCU: 0x219A7, offset: 0x219A7, size: 0x8, addend: 0x0, symName: __ZNSt3__122__compressed_pair_elemINS_9allocatorIN2sf6VertexEEELi1ELb1EE5__getB8ue170006Ev, symObjAddr: 0x7B8, symBinAddr: 0x10000163C, symSize: 0x14 }
  - { offsetInCU: 0x219CD, offset: 0x219CD, size: 0x8, addend: 0x0, symName: __ZNKSt3__16vectorIN2sf6VertexENS_9allocatorIS2_EEE9__end_capB8ue170006Ev, symObjAddr: 0x7CC, symBinAddr: 0x100001650, symSize: 0x28 }
  - { offsetInCU: 0x219F3, offset: 0x219F3, size: 0x8, addend: 0x0, symName: __ZNKSt3__117__compressed_pairIPN2sf6VertexENS_9allocatorIS2_EEE5firstB8ue170006Ev, symObjAddr: 0x7F4, symBinAddr: 0x100001678, symSize: 0x24 }
  - { offsetInCU: 0x21A19, offset: 0x21A19, size: 0x8, addend: 0x0, symName: __ZNKSt3__122__compressed_pair_elemIPN2sf6VertexELi0ELb0EE5__getB8ue170006Ev, symObjAddr: 0x818, symBinAddr: 0x10000169C, symSize: 0x14 }
  - { offsetInCU: 0x21A3F, offset: 0x21A3F, size: 0x8, addend: 0x0, symName: __ZNSt3__16vectorINS_10unique_ptrI6EntityNS_14default_deleteIS2_EEEENS_9allocatorIS5_EEED2B8ue170006Ev, symObjAddr: 0x82C, symBinAddr: 0x1000016B0, symSize: 0x44 }
  - { offsetInCU: 0x21A69, offset: 0x21A69, size: 0x8, addend: 0x0, symName: __ZNSt3__16vectorINS_10unique_ptrI6EntityNS_14default_deleteIS2_EEEENS_9allocatorIS5_EEE16__destroy_vectorC1B8ue170006ERS8_, symObjAddr: 0x870, symBinAddr: 0x1000016F4, symSize: 0x34 }
  - { offsetInCU: 0x21AA2, offset: 0x21AA2, size: 0x8, addend: 0x0, symName: __ZNSt3__16vectorINS_10unique_ptrI6EntityNS_14default_deleteIS2_EEEENS_9allocatorIS5_EEE16__destroy_vectorclB8ue170006Ev, symObjAddr: 0x8A4, symBinAddr: 0x100001728, symSize: 0x90 }
  - { offsetInCU: 0x21AC8, offset: 0x21AC8, size: 0x8, addend: 0x0, symName: __ZNSt3__16vectorINS_10unique_ptrI6EntityNS_14default_deleteIS2_EEEENS_9allocatorIS5_EEE16__destroy_vectorC2B8ue170006ERS8_, symObjAddr: 0x934, symBinAddr: 0x1000017B8, symSize: 0x20 }
  - { offsetInCU: 0x21B01, offset: 0x21B01, size: 0x8, addend: 0x0, symName: __ZNSt3__16vectorINS_10unique_ptrI6EntityNS_14default_deleteIS2_EEEENS_9allocatorIS5_EEE7__clearB8ue170006Ev, symObjAddr: 0x954, symBinAddr: 0x1000017D8, symSize: 0x28 }
  - { offsetInCU: 0x21B27, offset: 0x21B27, size: 0x8, addend: 0x0, symName: __ZNKSt3__16vectorINS_10unique_ptrI6EntityNS_14default_deleteIS2_EEEENS_9allocatorIS5_EEE17__annotate_deleteB8ue170006Ev, symObjAddr: 0x97C, symBinAddr: 0x100001800, symSize: 0xB8 }
  - { offsetInCU: 0x21B4D, offset: 0x21B4D, size: 0x8, addend: 0x0, symName: __ZNSt3__116allocator_traitsINS_9allocatorINS_10unique_ptrI6EntityNS_14default_deleteIS3_EEEEEEE10deallocateB8ue170006ERS7_PS6_m, symObjAddr: 0xA34, symBinAddr: 0x1000018B8, symSize: 0x34 }
  - { offsetInCU: 0x21B8F, offset: 0x21B8F, size: 0x8, addend: 0x0, symName: __ZNSt3__16vectorINS_10unique_ptrI6EntityNS_14default_deleteIS2_EEEENS_9allocatorIS5_EEE7__allocB8ue170006Ev, symObjAddr: 0xA68, symBinAddr: 0x1000018EC, symSize: 0x28 }
  - { offsetInCU: 0x21BB5, offset: 0x21BB5, size: 0x8, addend: 0x0, symName: __ZNKSt3__16vectorINS_10unique_ptrI6EntityNS_14default_deleteIS2_EEEENS_9allocatorIS5_EEE8capacityB8ue170006Ev, symObjAddr: 0xA90, symBinAddr: 0x100001914, symSize: 0x40 }
  - { offsetInCU: 0x21BDB, offset: 0x21BDB, size: 0x8, addend: 0x0, symName: __ZNSt3__16vectorINS_10unique_ptrI6EntityNS_14default_deleteIS2_EEEENS_9allocatorIS5_EEE22__base_destruct_at_endB8ue170006EPS5_, symObjAddr: 0xAD0, symBinAddr: 0x100001954, symSize: 0x8C }
  - { offsetInCU: 0x21C1F, offset: 0x21C1F, size: 0x8, addend: 0x0, symName: __ZNSt3__116allocator_traitsINS_9allocatorINS_10unique_ptrI6EntityNS_14default_deleteIS3_EEEEEEE7destroyB8ue170006IS6_vEEvRS7_PT_, symObjAddr: 0xB5C, symBinAddr: 0x1000019E0, symSize: 0x2C }
  - { offsetInCU: 0x21C5C, offset: 0x21C5C, size: 0x8, addend: 0x0, symName: __ZNSt3__19allocatorINS_10unique_ptrI6EntityNS_14default_deleteIS2_EEEEE7destroyB8ue170006EPS5_, symObjAddr: 0xB9C, symBinAddr: 0x100001A20, symSize: 0x28 }
  - { offsetInCU: 0x21C90, offset: 0x21C90, size: 0x8, addend: 0x0, symName: __ZNSt3__110unique_ptrI6EntityNS_14default_deleteIS1_EEED1B8ue170006Ev, symObjAddr: 0xBC4, symBinAddr: 0x100001A48, symSize: 0x2C }
  - { offsetInCU: 0x21CBA, offset: 0x21CBA, size: 0x8, addend: 0x0, symName: __ZNSt3__110unique_ptrI6EntityNS_14default_deleteIS1_EEED2B8ue170006Ev, symObjAddr: 0xBF0, symBinAddr: 0x100001A74, symSize: 0x30 }
  - { offsetInCU: 0x21CE4, offset: 0x21CE4, size: 0x8, addend: 0x0, symName: __ZNSt3__110unique_ptrI6EntityNS_14default_deleteIS1_EEE5resetB8ue170006EPS1_, symObjAddr: 0xC20, symBinAddr: 0x100001AA4, symSize: 0x78 }
  - { offsetInCU: 0x21D28, offset: 0x21D28, size: 0x8, addend: 0x0, symName: __ZNSt3__117__compressed_pairIP6EntityNS_14default_deleteIS1_EEE5firstB8ue170006Ev, symObjAddr: 0xC98, symBinAddr: 0x100001B1C, symSize: 0x24 }
  - { offsetInCU: 0x21D4E, offset: 0x21D4E, size: 0x8, addend: 0x0, symName: __ZNSt3__117__compressed_pairIP6EntityNS_14default_deleteIS1_EEE6secondB8ue170006Ev, symObjAddr: 0xCBC, symBinAddr: 0x100001B40, symSize: 0x24 }
  - { offsetInCU: 0x21D74, offset: 0x21D74, size: 0x8, addend: 0x0, symName: __ZNKSt3__114default_deleteI6EntityEclB8ue170006EPS1_, symObjAddr: 0xCE0, symBinAddr: 0x100001B64, symSize: 0x4C }
  - { offsetInCU: 0x21DA8, offset: 0x21DA8, size: 0x8, addend: 0x0, symName: __ZNSt3__122__compressed_pair_elemIP6EntityLi0ELb0EE5__getB8ue170006Ev, symObjAddr: 0xD2C, symBinAddr: 0x100001BB0, symSize: 0x14 }
  - { offsetInCU: 0x21DCE, offset: 0x21DCE, size: 0x8, addend: 0x0, symName: __ZNSt3__122__compressed_pair_elemINS_14default_deleteI6EntityEELi1ELb1EE5__getB8ue170006Ev, symObjAddr: 0xD40, symBinAddr: 0x100001BC4, symSize: 0x14 }
  - { offsetInCU: 0x21DF4, offset: 0x21DF4, size: 0x8, addend: 0x0, symName: __ZN6EntityD1Ev, symObjAddr: 0xD54, symBinAddr: 0x100001BD8, symSize: 0x2C }
  - { offsetInCU: 0x21E20, offset: 0x21E20, size: 0x8, addend: 0x0, symName: __ZN6EntityD2Ev, symObjAddr: 0xD80, symBinAddr: 0x100001C04, symSize: 0x68 }
  - { offsetInCU: 0x21E4C, offset: 0x21E4C, size: 0x8, addend: 0x0, symName: __ZNSt3__13mapINS_12basic_stringIcNS_11char_traitsIcEENS_9allocatorIcEEEES6_NS_4lessIS6_EENS4_INS_4pairIKS6_S6_EEEEED1B8ue170006Ev, symObjAddr: 0xDE8, symBinAddr: 0x100001C6C, symSize: 0x2C }
  - { offsetInCU: 0x21E76, offset: 0x21E76, size: 0x8, addend: 0x0, symName: __ZNSt3__16vectorI16SpriteDefinitionNS_9allocatorIS1_EEED1B8ue170006Ev, symObjAddr: 0xE14, symBinAddr: 0x100001C98, symSize: 0x2C }
  - { offsetInCU: 0x21EA0, offset: 0x21EA0, size: 0x8, addend: 0x0, symName: __ZN2sf6SpriteD1Ev, symObjAddr: 0xE40, symBinAddr: 0x100001CC4, symSize: 0x2C }
  - { offsetInCU: 0x21ECC, offset: 0x21ECC, size: 0x8, addend: 0x0, symName: __ZNSt3__13mapINS_12basic_stringIcNS_11char_traitsIcEENS_9allocatorIcEEEES6_NS_4lessIS6_EENS4_INS_4pairIKS6_S6_EEEEED2B8ue170006Ev, symObjAddr: 0xE6C, symBinAddr: 0x100001CF0, symSize: 0x2C }
  - { offsetInCU: 0x21EF6, offset: 0x21EF6, size: 0x8, addend: 0x0, symName: __ZNSt3__16__treeINS_12__value_typeINS_12basic_stringIcNS_11char_traitsIcEENS_9allocatorIcEEEES7_EENS_19__map_value_compareIS7_S8_NS_4lessIS7_EELb1EEENS5_IS8_EEED1Ev, symObjAddr: 0xE98, symBinAddr: 0x100001D1C, symSize: 0x2C }
  - { offsetInCU: 0x21F22, offset: 0x21F22, size: 0x8, addend: 0x0, symName: __ZNSt3__16__treeINS_12__value_typeINS_12basic_stringIcNS_11char_traitsIcEENS_9allocatorIcEEEES7_EENS_19__map_value_compareIS7_S8_NS_4lessIS7_EELb1EEENS5_IS8_EEED2Ev, symObjAddr: 0xEC4, symBinAddr: 0x100001D48, symSize: 0x38 }
  - { offsetInCU: 0x21F4E, offset: 0x21F4E, size: 0x8, addend: 0x0, symName: __ZNSt3__16__treeINS_12__value_typeINS_12basic_stringIcNS_11char_traitsIcEENS_9allocatorIcEEEES7_EENS_19__map_value_compareIS7_S8_NS_4lessIS7_EELb1EEENS5_IS8_EEE7destroyEPNS_11__tree_nodeIS8_PvEE, symObjAddr: 0xEFC, symBinAddr: 0x100001D80, symSize: 0xAC }
  - { offsetInCU: 0x21F9B, offset: 0x21F9B, size: 0x8, addend: 0x0, symName: __ZNKSt3__16__treeINS_12__value_typeINS_12basic_stringIcNS_11char_traitsIcEENS_9allocatorIcEEEES7_EENS_19__map_value_compareIS7_S8_NS_4lessIS7_EELb1EEENS5_IS8_EEE6__rootB8ue170006Ev, symObjAddr: 0xFA8, symBinAddr: 0x100001E2C, symSize: 0x28 }
  - { offsetInCU: 0x21FC1, offset: 0x21FC1, size: 0x8, addend: 0x0, symName: __ZNSt3__16__treeINS_12__value_typeINS_12basic_stringIcNS_11char_traitsIcEENS_9allocatorIcEEEES7_EENS_19__map_value_compareIS7_S8_NS_4lessIS7_EELb1EEENS5_IS8_EEE12__node_allocB8ue170006Ev, symObjAddr: 0xFD0, symBinAddr: 0x100001E54, symSize: 0x28 }
  - { offsetInCU: 0x21FEC, offset: 0x21FEC, size: 0x8, addend: 0x0, symName: __ZNSt3__116allocator_traitsINS_9allocatorINS_11__tree_nodeINS_12__value_typeINS_12basic_stringIcNS_11char_traitsIcEENS1_IcEEEES8_EEPvEEEEE7destroyB8ue170006INS_4pairIKS8_S8_EEvvEEvRSC_PT_, symObjAddr: 0xFF8, symBinAddr: 0x100001E7C, symSize: 0x28 }
  - { offsetInCU: 0x22027, offset: 0x22027, size: 0x8, addend: 0x0, symName: __ZNSt3__122__tree_key_value_typesINS_12__value_typeINS_12basic_stringIcNS_11char_traitsIcEENS_9allocatorIcEEEES7_EEE9__get_ptrB8ue170006ERS8_, symObjAddr: 0x1020, symBinAddr: 0x100001EA4, symSize: 0x24 }
  - { offsetInCU: 0x2204B, offset: 0x2204B, size: 0x8, addend: 0x0, symName: __ZNSt3__116allocator_traitsINS_9allocatorINS_11__tree_nodeINS_12__value_typeINS_12basic_stringIcNS_11char_traitsIcEENS1_IcEEEES8_EEPvEEEEE10deallocateB8ue170006ERSC_PSB_m, symObjAddr: 0x1044, symBinAddr: 0x100001EC8, symSize: 0x34 }
  - { offsetInCU: 0x2208D, offset: 0x2208D, size: 0x8, addend: 0x0, symName: __ZNSt3__117__compressed_pairINS_15__tree_end_nodeIPNS_16__tree_node_baseIPvEEEENS_9allocatorINS_11__tree_nodeINS_12__value_typeINS_12basic_stringIcNS_11char_traitsIcEENS7_IcEEEESE_EES3_EEEEE6secondB8ue170006Ev, symObjAddr: 0x1078, symBinAddr: 0x100001EFC, symSize: 0x24 }
  - { offsetInCU: 0x220B3, offset: 0x220B3, size: 0x8, addend: 0x0, symName: __ZNSt3__122__compressed_pair_elemINS_9allocatorINS_11__tree_nodeINS_12__value_typeINS_12basic_stringIcNS_11char_traitsIcEENS1_IcEEEES8_EEPvEEEELi1ELb1EE5__getB8ue170006Ev, symObjAddr: 0x109C, symBinAddr: 0x100001F20, symSize: 0x14 }
  - { offsetInCU: 0x220D9, offset: 0x220D9, size: 0x8, addend: 0x0, symName: __ZNSt3__14pairIKNS_12basic_stringIcNS_11char_traitsIcEENS_9allocatorIcEEEES6_ED1Ev, symObjAddr: 0x10B0, symBinAddr: 0x100001F34, symSize: 0x2C }
  - { offsetInCU: 0x22105, offset: 0x22105, size: 0x8, addend: 0x0, symName: __ZNSt3__14pairIKNS_12basic_stringIcNS_11char_traitsIcEENS_9allocatorIcEEEES6_ED2Ev, symObjAddr: 0x10DC, symBinAddr: 0x100001F60, symSize: 0x38 }
  - { offsetInCU: 0x22131, offset: 0x22131, size: 0x8, addend: 0x0, symName: __ZNSt3__112__value_typeINS_12basic_stringIcNS_11char_traitsIcEENS_9allocatorIcEEEES6_E11__get_valueB8ue170006Ev, symObjAddr: 0x1114, symBinAddr: 0x100001F98, symSize: 0x24 }
  - { offsetInCU: 0x22157, offset: 0x22157, size: 0x8, addend: 0x0, symName: __ZNSt3__19allocatorINS_11__tree_nodeINS_12__value_typeINS_12basic_stringIcNS_11char_traitsIcEENS0_IcEEEES7_EEPvEEE10deallocateB8ue170006EPSA_m, symObjAddr: 0x1170, symBinAddr: 0x100001FF4, symSize: 0x44 }
  - { offsetInCU: 0x22199, offset: 0x22199, size: 0x8, addend: 0x0, symName: __ZNKSt3__16__treeINS_12__value_typeINS_12basic_stringIcNS_11char_traitsIcEENS_9allocatorIcEEEES7_EENS_19__map_value_compareIS7_S8_NS_4lessIS7_EELb1EEENS5_IS8_EEE10__end_nodeB8ue170006Ev, symObjAddr: 0x11B4, symBinAddr: 0x100002038, symSize: 0x2C }
  - { offsetInCU: 0x221BF, offset: 0x221BF, size: 0x8, addend: 0x0, symName: __ZNSt3__114pointer_traitsIPNS_15__tree_end_nodeIPNS_16__tree_node_baseIPvEEEEE10pointer_toB8ue170006ERS6_, symObjAddr: 0x11E0, symBinAddr: 0x100002064, symSize: 0x14 }
  - { offsetInCU: 0x221E2, offset: 0x221E2, size: 0x8, addend: 0x0, symName: __ZNKSt3__117__compressed_pairINS_15__tree_end_nodeIPNS_16__tree_node_baseIPvEEEENS_9allocatorINS_11__tree_nodeINS_12__value_typeINS_12basic_stringIcNS_11char_traitsIcEENS7_IcEEEESE_EES3_EEEEE5firstB8ue170006Ev, symObjAddr: 0x11F4, symBinAddr: 0x100002078, symSize: 0x24 }
  - { offsetInCU: 0x22208, offset: 0x22208, size: 0x8, addend: 0x0, symName: __ZNKSt3__122__compressed_pair_elemINS_15__tree_end_nodeIPNS_16__tree_node_baseIPvEEEELi0ELb0EE5__getB8ue170006Ev, symObjAddr: 0x1218, symBinAddr: 0x10000209C, symSize: 0x14 }
  - { offsetInCU: 0x2222E, offset: 0x2222E, size: 0x8, addend: 0x0, symName: __ZNSt3__16vectorI16SpriteDefinitionNS_9allocatorIS1_EEED2B8ue170006Ev, symObjAddr: 0x122C, symBinAddr: 0x1000020B0, symSize: 0x44 }
  - { offsetInCU: 0x22258, offset: 0x22258, size: 0x8, addend: 0x0, symName: __ZNSt3__16vectorI16SpriteDefinitionNS_9allocatorIS1_EEE16__destroy_vectorC1B8ue170006ERS4_, symObjAddr: 0x1270, symBinAddr: 0x1000020F4, symSize: 0x34 }
  - { offsetInCU: 0x22291, offset: 0x22291, size: 0x8, addend: 0x0, symName: __ZNSt3__16vectorI16SpriteDefinitionNS_9allocatorIS1_EEE16__destroy_vectorclB8ue170006Ev, symObjAddr: 0x12A4, symBinAddr: 0x100002128, symSize: 0x90 }
  - { offsetInCU: 0x222B7, offset: 0x222B7, size: 0x8, addend: 0x0, symName: __ZNSt3__16vectorI16SpriteDefinitionNS_9allocatorIS1_EEE16__destroy_vectorC2B8ue170006ERS4_, symObjAddr: 0x1334, symBinAddr: 0x1000021B8, symSize: 0x20 }
  - { offsetInCU: 0x222F0, offset: 0x222F0, size: 0x8, addend: 0x0, symName: __ZNSt3__16vectorI16SpriteDefinitionNS_9allocatorIS1_EEE7__clearB8ue170006Ev, symObjAddr: 0x1354, symBinAddr: 0x1000021D8, symSize: 0x28 }
  - { offsetInCU: 0x22316, offset: 0x22316, size: 0x8, addend: 0x0, symName: __ZNKSt3__16vectorI16SpriteDefinitionNS_9allocatorIS1_EEE17__annotate_deleteB8ue170006Ev, symObjAddr: 0x137C, symBinAddr: 0x100002200, symSize: 0xD4 }
  - { offsetInCU: 0x2233C, offset: 0x2233C, size: 0x8, addend: 0x0, symName: __ZNSt3__116allocator_traitsINS_9allocatorI16SpriteDefinitionEEE10deallocateB8ue170006ERS3_PS2_m, symObjAddr: 0x1450, symBinAddr: 0x1000022D4, symSize: 0x34 }
  - { offsetInCU: 0x2237E, offset: 0x2237E, size: 0x8, addend: 0x0, symName: __ZNSt3__16vectorI16SpriteDefinitionNS_9allocatorIS1_EEE7__allocB8ue170006Ev, symObjAddr: 0x1484, symBinAddr: 0x100002308, symSize: 0x28 }
  - { offsetInCU: 0x223A4, offset: 0x223A4, size: 0x8, addend: 0x0, symName: __ZNKSt3__16vectorI16SpriteDefinitionNS_9allocatorIS1_EEE8capacityB8ue170006Ev, symObjAddr: 0x14AC, symBinAddr: 0x100002330, symSize: 0x40 }
  - { offsetInCU: 0x223CA, offset: 0x223CA, size: 0x8, addend: 0x0, symName: __ZNSt3__16vectorI16SpriteDefinitionNS_9allocatorIS1_EEE22__base_destruct_at_endB8ue170006EPS1_, symObjAddr: 0x14EC, symBinAddr: 0x100002370, symSize: 0x8C }
  - { offsetInCU: 0x2240E, offset: 0x2240E, size: 0x8, addend: 0x0, symName: __ZNSt3__116allocator_traitsINS_9allocatorI16SpriteDefinitionEEE7destroyB8ue170006IS2_vEEvRS3_PT_, symObjAddr: 0x1578, symBinAddr: 0x1000023FC, symSize: 0x2C }
  - { offsetInCU: 0x2244B, offset: 0x2244B, size: 0x8, addend: 0x0, symName: __ZNSt3__19allocatorI16SpriteDefinitionE7destroyB8ue170006EPS1_, symObjAddr: 0x15B8, symBinAddr: 0x10000243C, symSize: 0x28 }
  - { offsetInCU: 0x22484, offset: 0x22484, size: 0x8, addend: 0x0, symName: __ZN16SpriteDefinitionD1Ev, symObjAddr: 0x15E0, symBinAddr: 0x100002464, symSize: 0x2C }
  - { offsetInCU: 0x224B0, offset: 0x224B0, size: 0x8, addend: 0x0, symName: __ZN16SpriteDefinitionD2Ev, symObjAddr: 0x160C, symBinAddr: 0x100002490, symSize: 0x2C }
  - { offsetInCU: 0x224DC, offset: 0x224DC, size: 0x8, addend: 0x0, symName: __ZNKSt3__16vectorI16SpriteDefinitionNS_9allocatorIS1_EEE31__annotate_contiguous_containerB8ue170006EPKvS6_S6_S6_, symObjAddr: 0x1638, symBinAddr: 0x1000024BC, symSize: 0x20 }
  - { offsetInCU: 0x22532, offset: 0x22532, size: 0x8, addend: 0x0, symName: __ZNKSt3__16vectorI16SpriteDefinitionNS_9allocatorIS1_EEE4dataB8ue170006Ev, symObjAddr: 0x1658, symBinAddr: 0x1000024DC, symSize: 0x28 }
  - { offsetInCU: 0x22558, offset: 0x22558, size: 0x8, addend: 0x0, symName: __ZNKSt3__16vectorI16SpriteDefinitionNS_9allocatorIS1_EEE4sizeB8ue170006Ev, symObjAddr: 0x1680, symBinAddr: 0x100002504, symSize: 0x28 }
  - { offsetInCU: 0x2257E, offset: 0x2257E, size: 0x8, addend: 0x0, symName: __ZNSt3__19allocatorI16SpriteDefinitionE10deallocateB8ue170006EPS1_m, symObjAddr: 0x16A8, symBinAddr: 0x10000252C, symSize: 0x44 }
  - { offsetInCU: 0x225C0, offset: 0x225C0, size: 0x8, addend: 0x0, symName: __ZNSt3__117__compressed_pairIP16SpriteDefinitionNS_9allocatorIS1_EEE6secondB8ue170006Ev, symObjAddr: 0x16EC, symBinAddr: 0x100002570, symSize: 0x24 }
  - { offsetInCU: 0x225E6, offset: 0x225E6, size: 0x8, addend: 0x0, symName: __ZNSt3__122__compressed_pair_elemINS_9allocatorI16SpriteDefinitionEELi1ELb1EE5__getB8ue170006Ev, symObjAddr: 0x1710, symBinAddr: 0x100002594, symSize: 0x14 }
  - { offsetInCU: 0x2260C, offset: 0x2260C, size: 0x8, addend: 0x0, symName: __ZNKSt3__16vectorI16SpriteDefinitionNS_9allocatorIS1_EEE9__end_capB8ue170006Ev, symObjAddr: 0x1724, symBinAddr: 0x1000025A8, symSize: 0x28 }
  - { offsetInCU: 0x22632, offset: 0x22632, size: 0x8, addend: 0x0, symName: __ZNKSt3__117__compressed_pairIP16SpriteDefinitionNS_9allocatorIS1_EEE5firstB8ue170006Ev, symObjAddr: 0x174C, symBinAddr: 0x1000025D0, symSize: 0x24 }
  - { offsetInCU: 0x22658, offset: 0x22658, size: 0x8, addend: 0x0, symName: __ZNKSt3__122__compressed_pair_elemIP16SpriteDefinitionLi0ELb0EE5__getB8ue170006Ev, symObjAddr: 0x1770, symBinAddr: 0x1000025F4, symSize: 0x14 }
  - { offsetInCU: 0x2267E, offset: 0x2267E, size: 0x8, addend: 0x0, symName: __ZN2sf6SpriteD2Ev, symObjAddr: 0x1784, symBinAddr: 0x100002608, symSize: 0x38 }
  - { offsetInCU: 0x226AA, offset: 0x226AA, size: 0x8, addend: 0x0, symName: __ZThn8_N2sf6SpriteD1Ev, symObjAddr: 0x17BC, symBinAddr: 0x100002640, symSize: 0x1C }
  - { offsetInCU: 0x226C0, offset: 0x226C0, size: 0x8, addend: 0x0, symName: __ZN2sf8DrawableD2Ev, symObjAddr: 0x17D8, symBinAddr: 0x10000265C, symSize: 0x14 }
  - { offsetInCU: 0x226EA, offset: 0x226EA, size: 0x8, addend: 0x0, symName: __ZNKSt3__16vectorINS_10unique_ptrI6EntityNS_14default_deleteIS2_EEEENS_9allocatorIS5_EEE31__annotate_contiguous_containerB8ue170006EPKvSA_SA_SA_, symObjAddr: 0x17EC, symBinAddr: 0x100002670, symSize: 0x20 }
  - { offsetInCU: 0x22740, offset: 0x22740, size: 0x8, addend: 0x0, symName: __ZNKSt3__16vectorINS_10unique_ptrI6EntityNS_14default_deleteIS2_EEEENS_9allocatorIS5_EEE4dataB8ue170006Ev, symObjAddr: 0x180C, symBinAddr: 0x100002690, symSize: 0x28 }
  - { offsetInCU: 0x22766, offset: 0x22766, size: 0x8, addend: 0x0, symName: __ZNKSt3__16vectorINS_10unique_ptrI6EntityNS_14default_deleteIS2_EEEENS_9allocatorIS5_EEE4sizeB8ue170006Ev, symObjAddr: 0x1834, symBinAddr: 0x1000026B8, symSize: 0x28 }
  - { offsetInCU: 0x2278C, offset: 0x2278C, size: 0x8, addend: 0x0, symName: __ZNSt3__19allocatorINS_10unique_ptrI6EntityNS_14default_deleteIS2_EEEEE10deallocateB8ue170006EPS5_m, symObjAddr: 0x185C, symBinAddr: 0x1000026E0, symSize: 0x40 }
  - { offsetInCU: 0x227CE, offset: 0x227CE, size: 0x8, addend: 0x0, symName: __ZNSt3__117__compressed_pairIPNS_10unique_ptrI6EntityNS_14default_deleteIS2_EEEENS_9allocatorIS5_EEE6secondB8ue170006Ev, symObjAddr: 0x189C, symBinAddr: 0x100002720, symSize: 0x24 }
  - { offsetInCU: 0x227F4, offset: 0x227F4, size: 0x8, addend: 0x0, symName: __ZNSt3__122__compressed_pair_elemINS_9allocatorINS_10unique_ptrI6EntityNS_14default_deleteIS3_EEEEEELi1ELb1EE5__getB8ue170006Ev, symObjAddr: 0x18C0, symBinAddr: 0x100002744, symSize: 0x14 }
  - { offsetInCU: 0x2281A, offset: 0x2281A, size: 0x8, addend: 0x0, symName: __ZNKSt3__16vectorINS_10unique_ptrI6EntityNS_14default_deleteIS2_EEEENS_9allocatorIS5_EEE9__end_capB8ue170006Ev, symObjAddr: 0x18D4, symBinAddr: 0x100002758, symSize: 0x28 }
  - { offsetInCU: 0x22840, offset: 0x22840, size: 0x8, addend: 0x0, symName: __ZNKSt3__117__compressed_pairIPNS_10unique_ptrI6EntityNS_14default_deleteIS2_EEEENS_9allocatorIS5_EEE5firstB8ue170006Ev, symObjAddr: 0x18FC, symBinAddr: 0x100002780, symSize: 0x24 }
  - { offsetInCU: 0x22866, offset: 0x22866, size: 0x8, addend: 0x0, symName: __ZNKSt3__122__compressed_pair_elemIPNS_10unique_ptrI6EntityNS_14default_deleteIS2_EEEELi0ELb0EE5__getB8ue170006Ev, symObjAddr: 0x1920, symBinAddr: 0x1000027A4, symSize: 0x14 }
  - { offsetInCU: 0x2288C, offset: 0x2288C, size: 0x8, addend: 0x0, symName: __ZNSt3__16vectorIN2sf14RectangleShapeENS_9allocatorIS2_EEED2B8ue170006Ev, symObjAddr: 0x1934, symBinAddr: 0x1000027B8, symSize: 0x44 }
  - { offsetInCU: 0x228B6, offset: 0x228B6, size: 0x8, addend: 0x0, symName: __ZNSt3__16vectorIN2sf14RectangleShapeENS_9allocatorIS2_EEE16__destroy_vectorC1B8ue170006ERS5_, symObjAddr: 0x1978, symBinAddr: 0x1000027FC, symSize: 0x34 }
  - { offsetInCU: 0x228EF, offset: 0x228EF, size: 0x8, addend: 0x0, symName: __ZNSt3__16vectorIN2sf14RectangleShapeENS_9allocatorIS2_EEE16__destroy_vectorclB8ue170006Ev, symObjAddr: 0x19AC, symBinAddr: 0x100002830, symSize: 0x90 }
  - { offsetInCU: 0x22915, offset: 0x22915, size: 0x8, addend: 0x0, symName: __ZNSt3__16vectorIN2sf14RectangleShapeENS_9allocatorIS2_EEE16__destroy_vectorC2B8ue170006ERS5_, symObjAddr: 0x1A3C, symBinAddr: 0x1000028C0, symSize: 0x20 }
  - { offsetInCU: 0x2294E, offset: 0x2294E, size: 0x8, addend: 0x0, symName: __ZNSt3__16vectorIN2sf14RectangleShapeENS_9allocatorIS2_EEE7__clearB8ue170006Ev, symObjAddr: 0x1A5C, symBinAddr: 0x1000028E0, symSize: 0x28 }
  - { offsetInCU: 0x22974, offset: 0x22974, size: 0x8, addend: 0x0, symName: __ZNKSt3__16vectorIN2sf14RectangleShapeENS_9allocatorIS2_EEE17__annotate_deleteB8ue170006Ev, symObjAddr: 0x1A84, symBinAddr: 0x100002908, symSize: 0xD4 }
  - { offsetInCU: 0x2299A, offset: 0x2299A, size: 0x8, addend: 0x0, symName: __ZNSt3__116allocator_traitsINS_9allocatorIN2sf14RectangleShapeEEEE10deallocateB8ue170006ERS4_PS3_m, symObjAddr: 0x1B58, symBinAddr: 0x1000029DC, symSize: 0x34 }
  - { offsetInCU: 0x229DC, offset: 0x229DC, size: 0x8, addend: 0x0, symName: __ZNSt3__16vectorIN2sf14RectangleShapeENS_9allocatorIS2_EEE7__allocB8ue170006Ev, symObjAddr: 0x1B8C, symBinAddr: 0x100002A10, symSize: 0x28 }
  - { offsetInCU: 0x22A02, offset: 0x22A02, size: 0x8, addend: 0x0, symName: __ZNKSt3__16vectorIN2sf14RectangleShapeENS_9allocatorIS2_EEE8capacityB8ue170006Ev, symObjAddr: 0x1BB4, symBinAddr: 0x100002A38, symSize: 0x40 }
  - { offsetInCU: 0x22A28, offset: 0x22A28, size: 0x8, addend: 0x0, symName: __ZNSt3__16vectorIN2sf14RectangleShapeENS_9allocatorIS2_EEE22__base_destruct_at_endB8ue170006EPS2_, symObjAddr: 0x1BF4, symBinAddr: 0x100002A78, symSize: 0x8C }
  - { offsetInCU: 0x22A6C, offset: 0x22A6C, size: 0x8, addend: 0x0, symName: __ZNSt3__116allocator_traitsINS_9allocatorIN2sf14RectangleShapeEEEE7destroyB8ue170006IS3_vEEvRS4_PT_, symObjAddr: 0x1C80, symBinAddr: 0x100002B04, symSize: 0x2C }
  - { offsetInCU: 0x22AA9, offset: 0x22AA9, size: 0x8, addend: 0x0, symName: __ZNSt3__19allocatorIN2sf14RectangleShapeEE7destroyB8ue170006EPS2_, symObjAddr: 0x1CC0, symBinAddr: 0x100002B44, symSize: 0x30 }
  - { offsetInCU: 0x22ADD, offset: 0x22ADD, size: 0x8, addend: 0x0, symName: __ZNKSt3__16vectorIN2sf14RectangleShapeENS_9allocatorIS2_EEE31__annotate_contiguous_containerB8ue170006EPKvS7_S7_S7_, symObjAddr: 0x1CF0, symBinAddr: 0x100002B74, symSize: 0x20 }
  - { offsetInCU: 0x22B33, offset: 0x22B33, size: 0x8, addend: 0x0, symName: __ZNKSt3__16vectorIN2sf14RectangleShapeENS_9allocatorIS2_EEE4dataB8ue170006Ev, symObjAddr: 0x1D10, symBinAddr: 0x100002B94, symSize: 0x28 }
  - { offsetInCU: 0x22B59, offset: 0x22B59, size: 0x8, addend: 0x0, symName: __ZNKSt3__16vectorIN2sf14RectangleShapeENS_9allocatorIS2_EEE4sizeB8ue170006Ev, symObjAddr: 0x1D38, symBinAddr: 0x100002BBC, symSize: 0x28 }
  - { offsetInCU: 0x22B7F, offset: 0x22B7F, size: 0x8, addend: 0x0, symName: __ZNSt3__19allocatorIN2sf14RectangleShapeEE10deallocateB8ue170006EPS2_m, symObjAddr: 0x1D60, symBinAddr: 0x100002BE4, symSize: 0x44 }
  - { offsetInCU: 0x22BC1, offset: 0x22BC1, size: 0x8, addend: 0x0, symName: __ZNSt3__117__compressed_pairIPN2sf14RectangleShapeENS_9allocatorIS2_EEE6secondB8ue170006Ev, symObjAddr: 0x1DA4, symBinAddr: 0x100002C28, symSize: 0x24 }
  - { offsetInCU: 0x22BE7, offset: 0x22BE7, size: 0x8, addend: 0x0, symName: __ZNSt3__122__compressed_pair_elemINS_9allocatorIN2sf14RectangleShapeEEELi1ELb1EE5__getB8ue170006Ev, symObjAddr: 0x1DC8, symBinAddr: 0x100002C4C, symSize: 0x14 }
  - { offsetInCU: 0x22C0D, offset: 0x22C0D, size: 0x8, addend: 0x0, symName: __ZNKSt3__16vectorIN2sf14RectangleShapeENS_9allocatorIS2_EEE9__end_capB8ue170006Ev, symObjAddr: 0x1DDC, symBinAddr: 0x100002C60, symSize: 0x28 }
  - { offsetInCU: 0x22C33, offset: 0x22C33, size: 0x8, addend: 0x0, symName: __ZNKSt3__117__compressed_pairIPN2sf14RectangleShapeENS_9allocatorIS2_EEE5firstB8ue170006Ev, symObjAddr: 0x1E04, symBinAddr: 0x100002C88, symSize: 0x24 }
  - { offsetInCU: 0x22C59, offset: 0x22C59, size: 0x8, addend: 0x0, symName: __ZNKSt3__122__compressed_pair_elemIPN2sf14RectangleShapeELi0ELb0EE5__getB8ue170006Ev, symObjAddr: 0x1E28, symBinAddr: 0x100002CAC, symSize: 0x14 }
  - { offsetInCU: 0x22C7F, offset: 0x22C7F, size: 0x8, addend: 0x0, symName: __ZN2sf14RectangleShapeD2Ev, symObjAddr: 0x1E3C, symBinAddr: 0x100002CC0, symSize: 0x2C }
  - { offsetInCU: 0x22CAB, offset: 0x22CAB, size: 0x8, addend: 0x0, symName: __ZThn8_N2sf14RectangleShapeD1Ev, symObjAddr: 0x1E68, symBinAddr: 0x100002CEC, symSize: 0x1C }
  - { offsetInCU: 0x22CC1, offset: 0x22CC1, size: 0x8, addend: 0x0, symName: __ZN13EntityManagerD2Ev, symObjAddr: 0x1E84, symBinAddr: 0x100002D08, symSize: 0x2C }
  - { offsetInCU: 0x1386, offset: 0x24126, size: 0x8, addend: 0x0, symName: __ZN2sfmlIfEENS_7Vector2IT_EERKS3_S2_, symObjAddr: 0x2368, symBinAddr: 0x100004F44, symSize: 0x50 }
  - { offsetInCU: 0x13CA, offset: 0x2416A, size: 0x8, addend: 0x0, symName: __ZN2sfdvIfEENS_7Vector2IT_EERKS3_S2_, symObjAddr: 0x30D8, symBinAddr: 0x100005C60, symSize: 0x50 }
  - { offsetInCU: 0x140E, offset: 0x241AE, size: 0x8, addend: 0x0, symName: __ZN2sfmiIfEENS_7Vector2IT_EERKS3_S5_, symObjAddr: 0x3128, symBinAddr: 0x100005CB0, symSize: 0x58 }
  - { offsetInCU: 0xED45, offset: 0x31AE5, size: 0x8, addend: 0x0, symName: __ZNSt3__124__put_character_sequenceB8ue170006IcNS_11char_traitsIcEEEERNS_13basic_ostreamIT_T0_EES7_PKS4_m, symObjAddr: 0x5324, symBinAddr: 0x100006E18, symSize: 0x1EC }
  - { offsetInCU: 0x145ED, offset: 0x3738D, size: 0x8, addend: 0x0, symName: __ZNSt3__1lsB8ue170006INS_11char_traitsIcEEEERNS_13basic_ostreamIcT_EES6_PKc, symObjAddr: 0x620, symBinAddr: 0x100003354, symSize: 0x48 }
  - { offsetInCU: 0x14633, offset: 0x373D3, size: 0x8, addend: 0x0, symName: __ZNSt3__14endlB8ue170006IcNS_11char_traitsIcEEEERNS_13basic_ostreamIT_T0_EES7_, symObjAddr: 0x694, symBinAddr: 0x1000033C8, symSize: 0x58 }
  - { offsetInCU: 0x14673, offset: 0x37413, size: 0x8, addend: 0x0, symName: __ZNSt3__1neB8ue170006IPNS_10unique_ptrI6EntityNS_14default_deleteIS2_EEEEEEbRKNS_11__wrap_iterIT_EESB_, symObjAddr: 0x177C, symBinAddr: 0x1000043AC, symSize: 0x34 }
  - { offsetInCU: 0x146B7, offset: 0x37457, size: 0x8, addend: 0x0, symName: __ZNSt3__1neB8ue170006IPN2sf14RectangleShapeEEEbRKNS_11__wrap_iterIT_EES8_, symObjAddr: 0x1870, symBinAddr: 0x1000044A0, symSize: 0x34 }
  - { offsetInCU: 0x146FB, offset: 0x3749B, size: 0x8, addend: 0x0, symName: __ZNSt3__13minB8ue170006IfEERKT_S3_S3_, symObjAddr: 0x2254, symBinAddr: 0x100004E84, symSize: 0x2C }
  - { offsetInCU: 0x1473F, offset: 0x374DF, size: 0x8, addend: 0x0, symName: __ZNSt3__111make_uniqueB8ue170006I6EntityJRS1_EEENS_11__unique_ifIT_E15__unique_singleEDpOT0_, symObjAddr: 0x279C, symBinAddr: 0x100005350, symSize: 0x6C }
  - { offsetInCU: 0x14781, offset: 0x37521, size: 0x8, addend: 0x0, symName: __ZNSt3__1neB8ue170006IPKNS_10unique_ptrI6EntityNS_14default_deleteIS2_EEEEEEbRKNS_11__wrap_iterIT_EESC_, symObjAddr: 0x292C, symBinAddr: 0x1000054B4, symSize: 0x34 }
  - { offsetInCU: 0x147C5, offset: 0x37565, size: 0x8, addend: 0x0, symName: __ZNSt3__1neB8ue170006IPK16SpriteDefinitionEEbRKNS_11__wrap_iterIT_EES8_, symObjAddr: 0x2DC4, symBinAddr: 0x10000594C, symSize: 0x34 }
  - { offsetInCU: 0x14809, offset: 0x375A9, size: 0x8, addend: 0x0, symName: __ZNSt3__1eqB8ue170006IPNS_10unique_ptrI6EntityNS_14default_deleteIS2_EEEEEEbRKNS_11__wrap_iterIT_EESB_, symObjAddr: 0x3988, symBinAddr: 0x100006340, symSize: 0x48 }
  - { offsetInCU: 0x1484D, offset: 0x375ED, size: 0x8, addend: 0x0, symName: __ZNSt3__1eqB8ue170006IPN2sf14RectangleShapeEEEbRKNS_11__wrap_iterIT_EES8_, symObjAddr: 0x39E8, symBinAddr: 0x1000063A0, symSize: 0x48 }
  - { offsetInCU: 0x14891, offset: 0x37631, size: 0x8, addend: 0x0, symName: __ZNSt3__13minB8ue170006IfNS_6__lessIvvEEEERKT_S5_S5_T0_, symObjAddr: 0x3B98, symBinAddr: 0x100006550, symSize: 0x54 }
  - { offsetInCU: 0x14995, offset: 0x37735, size: 0x8, addend: 0x0, symName: __ZNSt3__1eqB8ue170006IPKNS_10unique_ptrI6EntityNS_14default_deleteIS2_EEEEEEbRKNS_11__wrap_iterIT_EESC_, symObjAddr: 0x3D8C, symBinAddr: 0x1000066DC, symSize: 0x48 }
  - { offsetInCU: 0x149D9, offset: 0x37779, size: 0x8, addend: 0x0, symName: __ZNSt3__1eqB8ue170006IPK16SpriteDefinitionEEbRKNS_11__wrap_iterIT_EES8_, symObjAddr: 0x3E60, symBinAddr: 0x1000067B0, symSize: 0x48 }
  - { offsetInCU: 0x14A1D, offset: 0x377BD, size: 0x8, addend: 0x0, symName: __ZNSt3__118__constexpr_strlenB8ue170006EPKc, symObjAddr: 0x5300, symBinAddr: 0x100006DF4, symSize: 0x24 }
  - { offsetInCU: 0x14A4A, offset: 0x377EA, size: 0x8, addend: 0x0, symName: __ZNSt3__116__pad_and_outputB8ue170006IcNS_11char_traitsIcEEEENS_19ostreambuf_iteratorIT_T0_EES6_PKS4_S8_S8_RNS_8ios_baseES4_, symObjAddr: 0x552C, symBinAddr: 0x100007020, symSize: 0x240 }
  - { offsetInCU: 0x14B1A, offset: 0x378BA, size: 0x8, addend: 0x0, symName: __ZNSt3__112__to_addressB8ue170006IcEEPT_S2_, symObjAddr: 0x599C, symBinAddr: 0x100007490, symSize: 0x14 }
  - { offsetInCU: 0x14B82, offset: 0x37922, size: 0x8, addend: 0x0, symName: __ZNSt3__19use_facetB8ue170006INS_5ctypeIcEEEERKT_RKNS_6localeE, symObjAddr: 0x5BE4, symBinAddr: 0x1000076D8, symSize: 0x2C }
  - { offsetInCU: 0x15050, offset: 0x37DF0, size: 0x8, addend: 0x0, symName: __ZNSt3__13maxB8ue170006ImEERKT_S3_S3_, symObjAddr: 0x6248, symBinAddr: 0x100007D3C, symSize: 0x2C }
  - { offsetInCU: 0x15094, offset: 0x37E34, size: 0x8, addend: 0x0, symName: __ZNSt3__13minB8ue170006ImEERKT_S3_S3_, symObjAddr: 0x6274, symBinAddr: 0x100007D68, symSize: 0x2C }
  - { offsetInCU: 0x152C2, offset: 0x38062, size: 0x8, addend: 0x0, symName: __ZNSt3__13minB8ue170006ImNS_6__lessIvvEEEERKT_S5_S5_T0_, symObjAddr: 0x6300, symBinAddr: 0x100007DF4, symSize: 0x54 }
  - { offsetInCU: 0x1531D, offset: 0x380BD, size: 0x8, addend: 0x0, symName: __ZNSt3__120__throw_length_errorB8ue170006EPKc, symObjAddr: 0x63E0, symBinAddr: 0x100007ED4, symSize: 0x64 }
  - { offsetInCU: 0x15348, offset: 0x380E8, size: 0x8, addend: 0x0, symName: __ZNSt3__13maxB8ue170006ImNS_6__lessIvvEEEERKT_S5_S5_T0_, symObjAddr: 0x64C4, symBinAddr: 0x100007FB8, symSize: 0x54 }
  - { offsetInCU: 0x153A3, offset: 0x38143, size: 0x8, addend: 0x0, symName: __ZNSt3__119__allocate_at_leastB8ue170006INS_9allocatorIN2sf6VertexEEEEENS_19__allocation_resultINS_16allocator_traitsIT_E7pointerEEERS7_m, symObjAddr: 0x6634, symBinAddr: 0x100008128, symSize: 0x40 }
  - { offsetInCU: 0x153E7, offset: 0x38187, size: 0x8, addend: 0x0, symName: __ZNSt3__117__libcpp_allocateB8ue170006Emm, symObjAddr: 0x67BC, symBinAddr: 0x1000082B0, symSize: 0x60 }
  - { offsetInCU: 0x15441, offset: 0x381E1, size: 0x8, addend: 0x0, symName: __ZNSt3__121__libcpp_operator_newB8ue170006IJmSt11align_val_tEEEPvDpT_, symObjAddr: 0x681C, symBinAddr: 0x100008310, symSize: 0x2C }
  - { offsetInCU: 0x1548E, offset: 0x3822E, size: 0x8, addend: 0x0, symName: __ZNSt3__121__libcpp_operator_newB8ue170006IJmEEEPvDpT_, symObjAddr: 0x6848, symBinAddr: 0x10000833C, symSize: 0x24 }
  - { offsetInCU: 0x154C7, offset: 0x38267, size: 0x8, addend: 0x0, symName: __ZNSt3__142__uninitialized_allocator_move_if_noexceptB8ue170006INS_9allocatorIN2sf6VertexEEENS_16reverse_iteratorIPS3_EES7_S3_vEET1_RT_T0_SB_S8_, symObjAddr: 0x68D0, symBinAddr: 0x1000083C4, symSize: 0x78 }
  - { offsetInCU: 0x15545, offset: 0x382E5, size: 0x8, addend: 0x0, symName: __ZNSt3__14swapB8ue170006IPN2sf6VertexEEENS_9enable_ifIXaasr21is_move_constructibleIT_EE5valuesr18is_move_assignableIS5_EE5valueEvE4typeERS5_S8_, symObjAddr: 0x6994, symBinAddr: 0x100008488, symSize: 0x3C }
  - { offsetInCU: 0x15597, offset: 0x38337, size: 0x8, addend: 0x0, symName: __ZNSt3__14moveB8ue170006INS_16reverse_iteratorIPN2sf6VertexEEES5_EET0_T_S7_S6_, symObjAddr: 0x6A98, symBinAddr: 0x10000858C, symSize: 0x78 }
  - { offsetInCU: 0x155F2, offset: 0x38392, size: 0x8, addend: 0x0, symName: __ZNSt3__16__moveB8ue170006INS_17_ClassicAlgPolicyENS_16reverse_iteratorIPN2sf6VertexEEES6_S6_EENS_4pairIT0_T2_EES8_T1_S9_, symObjAddr: 0x6B10, symBinAddr: 0x100008604, symSize: 0x64 }
  - { offsetInCU: 0x1565F, offset: 0x383FF, size: 0x8, addend: 0x0, symName: __ZNSt3__123__dispatch_copy_or_moveB8ue170006INS_17_ClassicAlgPolicyENS_11__move_loopIS1_EENS_14__move_trivialENS_16reverse_iteratorIPN2sf6VertexEEES9_S9_EENS_4pairIT2_T4_EESB_T3_SC_, symObjAddr: 0x6B74, symBinAddr: 0x100008668, symSize: 0x64 }
  - { offsetInCU: 0x156DE, offset: 0x3847E, size: 0x8, addend: 0x0, symName: __ZNSt3__121__unwrap_and_dispatchB8ue170006INS_10__overloadINS_11__move_loopINS_17_ClassicAlgPolicyEEENS_14__move_trivialEEENS_16reverse_iteratorIPN2sf6VertexEEESB_SB_Li0EEENS_4pairIT0_T2_EESD_T1_SE_, symObjAddr: 0x6BD8, symBinAddr: 0x1000086CC, symSize: 0x12C }
  - { offsetInCU: 0x15772, offset: 0x38512, size: 0x8, addend: 0x0, symName: __ZNSt3__114__unwrap_rangeB8ue170006INS_16reverse_iteratorIPN2sf6VertexEEES5_EENS_4pairIT0_S7_EET_S9_, symObjAddr: 0x6D04, symBinAddr: 0x1000087F8, symSize: 0x84 }
  - { offsetInCU: 0x158EF, offset: 0x3868F, size: 0x8, addend: 0x0, symName: __ZNSt3__113__unwrap_iterB8ue170006INS_16reverse_iteratorIPN2sf6VertexEEENS_18__unwrap_iter_implIS5_Lb0EEELi0EEEDTclsrT0_8__unwrapclsr3stdE7declvalIT_EEEES9_, symObjAddr: 0x6E30, symBinAddr: 0x100008924, symSize: 0x44 }
  - { offsetInCU: 0x15935, offset: 0x386D5, size: 0x8, addend: 0x0, symName: __ZNSt3__19make_pairB8ue170006INS_16reverse_iteratorIPN2sf6VertexEEES5_EENS_4pairINS_18__unwrap_ref_decayIT_E4typeENS7_IT0_E4typeEEEOS8_OSB_, symObjAddr: 0x6E74, symBinAddr: 0x100008968, symSize: 0x38 }
  - { offsetInCU: 0x15984, offset: 0x38724, size: 0x8, addend: 0x0, symName: __ZNSt3__114__rewrap_rangeB8ue170006INS_16reverse_iteratorIPN2sf6VertexEEES5_EET_S6_T0_, symObjAddr: 0x6EAC, symBinAddr: 0x1000089A0, symSize: 0x5C }
  - { offsetInCU: 0x159D1, offset: 0x38771, size: 0x8, addend: 0x0, symName: __ZNSt3__113__rewrap_iterB8ue170006INS_16reverse_iteratorIPN2sf6VertexEEES5_NS_18__unwrap_iter_implIS5_Lb0EEEEET_S8_T0_, symObjAddr: 0x6F08, symBinAddr: 0x1000089FC, symSize: 0x74 }
  - { offsetInCU: 0x15A27, offset: 0x387C7, size: 0x8, addend: 0x0, symName: __ZNSt3__1neB8ue170006IPN2sf6VertexES3_EEbRKNS_16reverse_iteratorIT_EERKNS4_IT0_EE, symObjAddr: 0x6F7C, symBinAddr: 0x100008A70, symSize: 0x48 }
  - { offsetInCU: 0x15B27, offset: 0x388C7, size: 0x8, addend: 0x0, symName: __ZNSt3__119__allocate_at_leastB8ue170006INS_9allocatorINS_10unique_ptrI6EntityNS_14default_deleteIS3_EEEEEEEENS_19__allocation_resultINS_16allocator_traitsIT_E7pointerEEERSA_m, symObjAddr: 0x89EC, symBinAddr: 0x1000099A0, symSize: 0x40 }
  - { offsetInCU: 0x15B6B, offset: 0x3890B, size: 0x8, addend: 0x0, symName: __ZNSt3__142__uninitialized_allocator_move_if_noexceptB8ue170006INS_9allocatorINS_10unique_ptrI6EntityNS_14default_deleteIS3_EEEEEENS_16reverse_iteratorIPS6_EESA_SA_EET2_RT_T0_T1_SB_, symObjAddr: 0x8BA0, symBinAddr: 0x100009B54, symSize: 0x12C }
  - { offsetInCU: 0x15C0B, offset: 0x389AB, size: 0x8, addend: 0x0, symName: __ZNSt3__14swapB8ue170006IPNS_10unique_ptrI6EntityNS_14default_deleteIS2_EEEEEENS_9enable_ifIXaasr21is_move_constructibleIT_EE5valuesr18is_move_assignableIS8_EE5valueEvE4typeERS8_SB_, symObjAddr: 0x8D18, symBinAddr: 0x100009CCC, symSize: 0x3C }
  - { offsetInCU: 0x15C5D, offset: 0x389FD, size: 0x8, addend: 0x0, symName: __ZNSt3__122__make_exception_guardB8ue170006INS_29_AllocatorDestroyRangeReverseINS_9allocatorINS_10unique_ptrI6EntityNS_14default_deleteIS4_EEEEEENS_16reverse_iteratorIPS7_EEEEEENS_28__exception_guard_exceptionsIT_EESE_, symObjAddr: 0x8E00, symBinAddr: 0x100009DB4, symSize: 0x4C }
  - { offsetInCU: 0x15C94, offset: 0x38A34, size: 0x8, addend: 0x0, symName: __ZNSt3__1neB8ue170006IPNS_10unique_ptrI6EntityNS_14default_deleteIS2_EEEES6_EEbRKNS_16reverse_iteratorIT_EERKNS7_IT0_EE, symObjAddr: 0x8E90, symBinAddr: 0x100009E44, symSize: 0x48 }
  - { offsetInCU: 0x15CE1, offset: 0x38A81, size: 0x8, addend: 0x0, symName: __ZNSt3__112__to_addressB8ue170006INS_16reverse_iteratorIPNS_10unique_ptrI6EntityNS_14default_deleteIS3_EEEEEEvEEu7__decayIDTclsr19__to_address_helperIT_EE6__callclsr3stdE7declvalIRKS9_EEEEESB_, symObjAddr: 0x8ED8, symBinAddr: 0x100009E8C, symSize: 0x24 }
  - { offsetInCU: 0x15D42, offset: 0x38AE2, size: 0x8, addend: 0x0, symName: __ZNSt3__119__allocator_destroyB8ue170006INS_9allocatorINS_10unique_ptrI6EntityNS_14default_deleteIS3_EEEEEENS_16reverse_iteratorINS8_IPS6_EEEESB_EEvRT_T0_T1_, symObjAddr: 0x9188, symBinAddr: 0x10000A13C, symSize: 0x70 }
  - { offsetInCU: 0x15DA7, offset: 0x38B47, size: 0x8, addend: 0x0, symName: __ZNSt3__1neB8ue170006INS_16reverse_iteratorIPNS_10unique_ptrI6EntityNS_14default_deleteIS3_EEEEEES8_EEbRKNS1_IT_EERKNS1_IT0_EE, symObjAddr: 0x9234, symBinAddr: 0x10000A1E8, symSize: 0x60 }
  - { offsetInCU: 0x15DF4, offset: 0x38B94, size: 0x8, addend: 0x0, symName: __ZNSt3__112__to_addressB8ue170006INS_16reverse_iteratorINS1_IPNS_10unique_ptrI6EntityNS_14default_deleteIS3_EEEEEEEEvEEu7__decayIDTclsr19__to_address_helperIT_EE6__callclsr3stdE7declvalIRKSA_EEEEESC_, symObjAddr: 0x9294, symBinAddr: 0x10000A248, symSize: 0x24 }
  - { offsetInCU: 0x15E55, offset: 0x38BF5, size: 0x8, addend: 0x0, symName: __ZNSt3__122__make_exception_guardB8ue170006INS_6vectorIN2sf6VertexENS_9allocatorIS3_EEE16__destroy_vectorEEENS_28__exception_guard_exceptionsIT_EES9_, symObjAddr: 0x9EE4, symBinAddr: 0x10000AE98, symSize: 0x40 }
  - { offsetInCU: 0x15E8B, offset: 0x38C2B, size: 0x8, addend: 0x0, symName: __ZNSt3__130__uninitialized_allocator_copyB8ue170006INS_9allocatorIN2sf6VertexEEEPS3_S5_S5_EET2_RT_T0_T1_S6_, symObjAddr: 0xA104, symBinAddr: 0x10000B0B8, symSize: 0x80 }
  - { offsetInCU: 0x15F28, offset: 0x38CC8, size: 0x8, addend: 0x0, symName: __ZNSt3__114__unwrap_rangeB8ue170006IPN2sf6VertexES3_EENS_4pairIT0_S5_EET_S7_, symObjAddr: 0xA184, symBinAddr: 0x10000B138, symSize: 0x60 }
  - { offsetInCU: 0x15F75, offset: 0x38D15, size: 0x8, addend: 0x0, symName: __ZNSt3__135__uninitialized_allocator_copy_implB8ue170006INS_9allocatorIN2sf6VertexEEES3_S3_S3_LPv0EEEPT2_RT_PT0_SB_S7_, symObjAddr: 0xA1E4, symBinAddr: 0x10000B198, symSize: 0x38 }
  - { offsetInCU: 0x15FF8, offset: 0x38D98, size: 0x8, addend: 0x0, symName: __ZNSt3__113__unwrap_iterB8ue170006IPN2sf6VertexENS_18__unwrap_iter_implIS3_Lb1EEELi0EEEDTclsrT0_8__unwrapclsr3stdE7declvalIT_EEEES7_, symObjAddr: 0xA21C, symBinAddr: 0x10000B1D0, symSize: 0x24 }
  - { offsetInCU: 0x1603E, offset: 0x38DDE, size: 0x8, addend: 0x0, symName: __ZNSt3__113__rewrap_iterB8ue170006IPN2sf6VertexES3_NS_18__unwrap_iter_implIS3_Lb1EEEEET_S6_T0_, symObjAddr: 0xA240, symBinAddr: 0x10000B1F4, symSize: 0x3C }
  - { offsetInCU: 0x16094, offset: 0x38E34, size: 0x8, addend: 0x0, symName: __ZNSt3__19make_pairB8ue170006IPN2sf6VertexES3_EENS_4pairINS_18__unwrap_ref_decayIT_E4typeENS5_IT0_E4typeEEEOS6_OS9_, symObjAddr: 0xA27C, symBinAddr: 0x10000B230, symSize: 0x38 }
  - { offsetInCU: 0x161E8, offset: 0x38F88, size: 0x8, addend: 0x0, symName: __ZNSt3__14copyB8ue170006IPN2sf6VertexES3_EET0_T_S5_S4_, symObjAddr: 0xA324, symBinAddr: 0x10000B2D8, symSize: 0x40 }
  - { offsetInCU: 0x16243, offset: 0x38FE3, size: 0x8, addend: 0x0, symName: __ZNSt3__16__copyB8ue170006INS_17_ClassicAlgPolicyEPN2sf6VertexES4_S4_EENS_4pairIT0_T2_EES6_T1_S7_, symObjAddr: 0xA364, symBinAddr: 0x10000B318, symSize: 0x44 }
  - { offsetInCU: 0x162B0, offset: 0x39050, size: 0x8, addend: 0x0, symName: __ZNSt3__123__dispatch_copy_or_moveB8ue170006INS_17_ClassicAlgPolicyENS_11__copy_loopIS1_EENS_14__copy_trivialEPN2sf6VertexES7_S7_EENS_4pairIT2_T4_EES9_T3_SA_, symObjAddr: 0xA3A8, symBinAddr: 0x10000B35C, symSize: 0x44 }
  - { offsetInCU: 0x1632F, offset: 0x390CF, size: 0x8, addend: 0x0, symName: __ZNSt3__121__unwrap_and_dispatchB8ue170006INS_10__overloadINS_11__copy_loopINS_17_ClassicAlgPolicyEEENS_14__copy_trivialEEEPN2sf6VertexES9_S9_Li0EEENS_4pairIT0_T2_EESB_T1_SC_, symObjAddr: 0xA3EC, symBinAddr: 0x10000B3A0, symSize: 0xB4 }
  - { offsetInCU: 0x16408, offset: 0x391A8, size: 0x8, addend: 0x0, symName: __ZNSt3__114__rewrap_rangeB8ue170006IPN2sf6VertexES3_EET_S4_T0_, symObjAddr: 0xA4E8, symBinAddr: 0x10000B49C, symSize: 0x2C }
  - { offsetInCU: 0x16455, offset: 0x391F5, size: 0x8, addend: 0x0, symName: __ZNSt3__119__copy_trivial_implB8ue170006IN2sf6VertexES2_EENS_4pairIPT_PT0_EES5_S5_S7_, symObjAddr: 0xA514, symBinAddr: 0x10000B4C8, symSize: 0x88 }
  - { offsetInCU: 0x164BF, offset: 0x3925F, size: 0x8, addend: 0x0, symName: __ZNSt3__119__constexpr_memmoveB8ue170006IN2sf6VertexES2_Li0EEEPT_S4_PT0_NS_15__element_countE, symObjAddr: 0xA59C, symBinAddr: 0x10000B550, symSize: 0x68 }
  - { offsetInCU: 0x16530, offset: 0x392D0, size: 0x8, addend: 0x0, symName: __ZNSt3__19make_pairB8ue170006IRPN2sf6VertexES3_EENS_4pairINS_18__unwrap_ref_decayIT_E4typeENS6_IT0_E4typeEEEOS7_OSA_, symObjAddr: 0xA604, symBinAddr: 0x10000B5B8, symSize: 0x38 }
  - { offsetInCU: 0x165D2, offset: 0x39372, size: 0x8, addend: 0x0, symName: __ZNSt3__119__allocate_at_leastB8ue170006INS_9allocatorIN2sf14RectangleShapeEEEEENS_19__allocation_resultINS_16allocator_traitsIT_E7pointerEEERS7_m, symObjAddr: 0xAC00, symBinAddr: 0x10000BBB4, symSize: 0x40 }
  - { offsetInCU: 0x16616, offset: 0x393B6, size: 0x8, addend: 0x0, symName: __ZNSt3__142__uninitialized_allocator_move_if_noexceptB8ue170006INS_9allocatorIN2sf14RectangleShapeEEENS_16reverse_iteratorIPS3_EES7_S7_EET2_RT_T0_T1_S8_, symObjAddr: 0xADB8, symBinAddr: 0x10000BD6C, symSize: 0x12C }
  - { offsetInCU: 0x166B6, offset: 0x39456, size: 0x8, addend: 0x0, symName: __ZNSt3__14swapB8ue170006IPN2sf14RectangleShapeEEENS_9enable_ifIXaasr21is_move_constructibleIT_EE5valuesr18is_move_assignableIS5_EE5valueEvE4typeERS5_S8_, symObjAddr: 0xAF30, symBinAddr: 0x10000BEE4, symSize: 0x3C }
  - { offsetInCU: 0x16708, offset: 0x394A8, size: 0x8, addend: 0x0, symName: __ZNSt3__122__make_exception_guardB8ue170006INS_29_AllocatorDestroyRangeReverseINS_9allocatorIN2sf14RectangleShapeEEENS_16reverse_iteratorIPS4_EEEEEENS_28__exception_guard_exceptionsIT_EESB_, symObjAddr: 0xB034, symBinAddr: 0x10000BFE8, symSize: 0x4C }
  - { offsetInCU: 0x1673F, offset: 0x394DF, size: 0x8, addend: 0x0, symName: __ZNSt3__1neB8ue170006IPN2sf14RectangleShapeES3_EEbRKNS_16reverse_iteratorIT_EERKNS4_IT0_EE, symObjAddr: 0xB0C4, symBinAddr: 0x10000C078, symSize: 0x48 }
  - { offsetInCU: 0x1678C, offset: 0x3952C, size: 0x8, addend: 0x0, symName: __ZNSt3__112__to_addressB8ue170006INS_16reverse_iteratorIPN2sf14RectangleShapeEEEvEEu7__decayIDTclsr19__to_address_helperIT_EE6__callclsr3stdE7declvalIRKS6_EEEEES8_, symObjAddr: 0xB10C, symBinAddr: 0x10000C0C0, symSize: 0x24 }
  - { offsetInCU: 0x167ED, offset: 0x3958D, size: 0x8, addend: 0x0, symName: __ZNSt3__119__allocator_destroyB8ue170006INS_9allocatorIN2sf14RectangleShapeEEENS_16reverse_iteratorINS5_IPS3_EEEES8_EEvRT_T0_T1_, symObjAddr: 0xB3BC, symBinAddr: 0x10000C370, symSize: 0x70 }
  - { offsetInCU: 0x16852, offset: 0x395F2, size: 0x8, addend: 0x0, symName: __ZNSt3__1neB8ue170006INS_16reverse_iteratorIPN2sf14RectangleShapeEEES5_EEbRKNS1_IT_EERKNS1_IT0_EE, symObjAddr: 0xB468, symBinAddr: 0x10000C41C, symSize: 0x60 }
  - { offsetInCU: 0x1689F, offset: 0x3963F, size: 0x8, addend: 0x0, symName: __ZNSt3__112__to_addressB8ue170006INS_16reverse_iteratorINS1_IPN2sf14RectangleShapeEEEEEvEEu7__decayIDTclsr19__to_address_helperIT_EE6__callclsr3stdE7declvalIRKS7_EEEEES9_, symObjAddr: 0xB4C8, symBinAddr: 0x10000C47C, symSize: 0x24 }
  - { offsetInCU: 0x16900, offset: 0x396A0, size: 0x8, addend: 0x0, symName: __ZNSt3__13minB8ue170006IiEERKT_S3_S3_, symObjAddr: 0xB9BC, symBinAddr: 0x10000C970, symSize: 0x2C }
  - { offsetInCU: 0x16944, offset: 0x396E4, size: 0x8, addend: 0x0, symName: __ZNSt3__13maxB8ue170006IiEERKT_S3_S3_, symObjAddr: 0xB9E8, symBinAddr: 0x10000C99C, symSize: 0x2C }
  - { offsetInCU: 0x16988, offset: 0x39728, size: 0x8, addend: 0x0, symName: __ZNSt3__13minB8ue170006IiNS_6__lessIvvEEEERKT_S5_S5_T0_, symObjAddr: 0xBA14, symBinAddr: 0x10000C9C8, symSize: 0x54 }
  - { offsetInCU: 0x169E3, offset: 0x39783, size: 0x8, addend: 0x0, symName: __ZNSt3__13maxB8ue170006IiNS_6__lessIvvEEEERKT_S5_S5_T0_, symObjAddr: 0xBA9C, symBinAddr: 0x10000CA50, symSize: 0x54 }
  - { offsetInCU: 0x16A3E, offset: 0x397DE, size: 0x8, addend: 0x0, symName: __ZNSt3__13maxB8ue170006IfEERKT_S3_S3_, symObjAddr: 0xBAF0, symBinAddr: 0x10000CAA4, symSize: 0x2C }
  - { offsetInCU: 0x16A82, offset: 0x39822, size: 0x8, addend: 0x0, symName: __ZNSt3__13maxB8ue170006IfNS_6__lessIvvEEEERKT_S5_S5_T0_, symObjAddr: 0xBB1C, symBinAddr: 0x10000CAD0, symSize: 0x54 }
  - { offsetInCU: 0x16E65, offset: 0x39C05, size: 0x8, addend: 0x0, symName: __ZSt28__throw_bad_array_new_lengthB8ue170006v, symObjAddr: 0x6788, symBinAddr: 0x10000827C, symSize: 0x34 }
  - { offsetInCU: 0x17FB5, offset: 0x3AD55, size: 0x8, addend: 0x0, symName: __ZNSt3__16vectorIN2sf6VertexENS_9allocatorIS2_EEE26__swap_out_circular_bufferERNS_14__split_bufferIS2_RS4_EE, symObjAddr: 0x6090, symBinAddr: 0x100007B84, symSize: 0x110 }
  - { offsetInCU: 0x18011, offset: 0x3ADB1, size: 0x8, addend: 0x0, symName: __ZNSt3__16vectorINS_10unique_ptrI6EntityNS_14default_deleteIS2_EEEENS_9allocatorIS5_EEE26__swap_out_circular_bufferERNS_14__split_bufferIS5_RS7_EE, symObjAddr: 0x868C, symBinAddr: 0x100009640, symSize: 0x110 }
  - { offsetInCU: 0x180BD, offset: 0x3AE5D, size: 0x8, addend: 0x0, symName: __ZNSt3__16vectorIN2sf14RectangleShapeENS_9allocatorIS2_EEE26__swap_out_circular_bufferERNS_14__split_bufferIS2_RS4_EE, symObjAddr: 0xA888, symBinAddr: 0x10000B83C, symSize: 0x110 }
  - { offsetInCU: 0x1A465, offset: 0x3D205, size: 0x8, addend: 0x0, symName: __ZN6EditorC2Ev, symObjAddr: 0x0, symBinAddr: 0x100002D34, symSize: 0x440 }
  - { offsetInCU: 0x1A491, offset: 0x3D231, size: 0x8, addend: 0x0, symName: __ZN13EntityManagerC1Ev, symObjAddr: 0x440, symBinAddr: 0x100003174, symSize: 0x2C }
  - { offsetInCU: 0x1A4BD, offset: 0x3D25D, size: 0x8, addend: 0x0, symName: __ZN2sf7Vector2IfEC1Eff, symObjAddr: 0x46C, symBinAddr: 0x1000031A0, symSize: 0x3C }
  - { offsetInCU: 0x1A505, offset: 0x3D2A5, size: 0x8, addend: 0x0, symName: __ZNSt3__16vectorIN2sf14RectangleShapeENS_9allocatorIS2_EEEC1B8ue170006Ev, symObjAddr: 0x4A8, symBinAddr: 0x1000031DC, symSize: 0x2C }
  - { offsetInCU: 0x1A52F, offset: 0x3D2CF, size: 0x8, addend: 0x0, symName: __ZNSt3__16vectorINS_10unique_ptrI6EntityNS_14default_deleteIS2_EEEENS_9allocatorIS5_EEEC1B8ue170006Ev, symObjAddr: 0x4D4, symBinAddr: 0x100003208, symSize: 0x2C }
  - { offsetInCU: 0x1A559, offset: 0x3D2F9, size: 0x8, addend: 0x0, symName: __ZN2sf4RectIiEC1Ev, symObjAddr: 0x500, symBinAddr: 0x100003234, symSize: 0x2C }
  - { offsetInCU: 0x1A585, offset: 0x3D325, size: 0x8, addend: 0x0, symName: __ZN2sf7Vector2IfEC1Ev, symObjAddr: 0x52C, symBinAddr: 0x100003260, symSize: 0x2C }
  - { offsetInCU: 0x1A5B1, offset: 0x3D351, size: 0x8, addend: 0x0, symName: __ZNSt3__16vectorIN2sf6VertexENS_9allocatorIS2_EEEC1B8ue170006Ev, symObjAddr: 0x558, symBinAddr: 0x10000328C, symSize: 0x2C }
  - { offsetInCU: 0x1A5DB, offset: 0x3D37B, size: 0x8, addend: 0x0, symName: __ZN2sf6StringD1Ev, symObjAddr: 0x584, symBinAddr: 0x1000032B8, symSize: 0x2C }
  - { offsetInCU: 0x1A60C, offset: 0x3D3AC, size: 0x8, addend: 0x0, symName: __ZNSt3__112basic_stringIcNS_11char_traitsIcEENS_9allocatorIcEEEC1B8ue170006ILi0EEEPKc, symObjAddr: 0x5B0, symBinAddr: 0x1000032E4, symSize: 0x34 }
  - { offsetInCU: 0x1A64C, offset: 0x3D3EC, size: 0x8, addend: 0x0, symName: __ZNK13EntityManager11getEntitiesEv, symObjAddr: 0x5E4, symBinAddr: 0x100003318, symSize: 0x14 }
  - { offsetInCU: 0x1A672, offset: 0x3D412, size: 0x8, addend: 0x0, symName: __ZNKSt3__16vectorINS_10unique_ptrI6EntityNS_14default_deleteIS2_EEEENS_9allocatorIS5_EEE5emptyB8ue170006Ev, symObjAddr: 0x5F8, symBinAddr: 0x10000332C, symSize: 0x28 }
  - { offsetInCU: 0x1A698, offset: 0x3D438, size: 0x8, addend: 0x0, symName: __ZNSt3__113basic_ostreamIcNS_11char_traitsIcEEElsB8ue170006EPFRS3_S4_E, symObjAddr: 0x668, symBinAddr: 0x10000339C, symSize: 0x2C }
  - { offsetInCU: 0x1A6CC, offset: 0x3D46C, size: 0x8, addend: 0x0, symName: __ZN6Editor12loadEntitiesEv, symObjAddr: 0x6EC, symBinAddr: 0x100003420, symSize: 0x108 }
  - { offsetInCU: 0x1A6F4, offset: 0x3D494, size: 0x8, addend: 0x0, symName: __ZN6Editor22createEntityThumbnailsEv, symObjAddr: 0x7F4, symBinAddr: 0x100003528, symSize: 0x4D8 }
  - { offsetInCU: 0x1A80A, offset: 0x3D5AA, size: 0x8, addend: 0x0, symName: __ZN6Editor10createGridEv, symObjAddr: 0xCCC, symBinAddr: 0x100003A00, symSize: 0x22C }
  - { offsetInCU: 0x1A86C, offset: 0x3D60C, size: 0x8, addend: 0x0, symName: __ZN6EditorC1Ev, symObjAddr: 0xFD4, symBinAddr: 0x100003C2C, symSize: 0x2C }
  - { offsetInCU: 0x1A89D, offset: 0x3D63D, size: 0x8, addend: 0x0, symName: __ZNSt3__16vectorIN2sf6VertexENS_9allocatorIS2_EEE12emplace_backIJNS1_7Vector2IfEEEEERS2_DpOT_, symObjAddr: 0x1000, symBinAddr: 0x100003C58, symSize: 0x74 }
  - { offsetInCU: 0x1A8DF, offset: 0x3D67F, size: 0x8, addend: 0x0, symName: __ZN6Editor3runEv, symObjAddr: 0x1074, symBinAddr: 0x100003CCC, symSize: 0x54 }
  - { offsetInCU: 0x1A907, offset: 0x3D6A7, size: 0x8, addend: 0x0, symName: __ZN6Editor12handleEventsEv, symObjAddr: 0x10C8, symBinAddr: 0x100003D20, symSize: 0xB0 }
  - { offsetInCU: 0x1A93E, offset: 0x3D6DE, size: 0x8, addend: 0x0, symName: __ZN6Editor6updateEv, symObjAddr: 0x1178, symBinAddr: 0x100003DD0, symSize: 0x10 }
  - { offsetInCU: 0x1A966, offset: 0x3D706, size: 0x8, addend: 0x0, symName: __ZN6Editor6renderEv, symObjAddr: 0x1188, symBinAddr: 0x100003DE0, symSize: 0x1C4 }
  - { offsetInCU: 0x1AA32, offset: 0x3D7D2, size: 0x8, addend: 0x0, symName: __ZN6Editor16handleMouseClickEN2sf7Vector2IiEE, symObjAddr: 0x134C, symBinAddr: 0x100003FA4, symSize: 0x344 }
  - { offsetInCU: 0x1AAA4, offset: 0x3D844, size: 0x8, addend: 0x0, symName: __ZN2sf7Vector2IiEC1Eii, symObjAddr: 0x1690, symBinAddr: 0x1000042E8, symSize: 0x3C }
  - { offsetInCU: 0x1AAEC, offset: 0x3D88C, size: 0x8, addend: 0x0, symName: __ZNSt3__16vectorIN2sf6VertexENS_9allocatorIS2_EEE4dataB8ue170006Ev, symObjAddr: 0x16CC, symBinAddr: 0x100004324, symSize: 0x28 }
  - { offsetInCU: 0x1AB12, offset: 0x3D8B2, size: 0x8, addend: 0x0, symName: __ZNSt3__16vectorINS_10unique_ptrI6EntityNS_14default_deleteIS2_EEEENS_9allocatorIS5_EEE5beginB8ue170006Ev, symObjAddr: 0x171C, symBinAddr: 0x10000434C, symSize: 0x30 }
  - { offsetInCU: 0x1AB3A, offset: 0x3D8DA, size: 0x8, addend: 0x0, symName: __ZNSt3__16vectorINS_10unique_ptrI6EntityNS_14default_deleteIS2_EEEENS_9allocatorIS5_EEE3endB8ue170006Ev, symObjAddr: 0x174C, symBinAddr: 0x10000437C, symSize: 0x30 }
  - { offsetInCU: 0x1AB62, offset: 0x3D902, size: 0x8, addend: 0x0, symName: __ZNKSt3__111__wrap_iterIPNS_10unique_ptrI6EntityNS_14default_deleteIS2_EEEEEdeB8ue170006Ev, symObjAddr: 0x17B0, symBinAddr: 0x1000043E0, symSize: 0x18 }
  - { offsetInCU: 0x1AB88, offset: 0x3D928, size: 0x8, addend: 0x0, symName: __ZNKSt3__110unique_ptrI6EntityNS_14default_deleteIS1_EEEptB8ue170006Ev, symObjAddr: 0x17C8, symBinAddr: 0x1000043F8, symSize: 0x28 }
  - { offsetInCU: 0x1ABAE, offset: 0x3D94E, size: 0x8, addend: 0x0, symName: __ZNSt3__111__wrap_iterIPNS_10unique_ptrI6EntityNS_14default_deleteIS2_EEEEEppB8ue170006Ev, symObjAddr: 0x17F0, symBinAddr: 0x100004420, symSize: 0x20 }
  - { offsetInCU: 0x1ABD4, offset: 0x3D974, size: 0x8, addend: 0x0, symName: __ZNSt3__16vectorIN2sf14RectangleShapeENS_9allocatorIS2_EEE5beginB8ue170006Ev, symObjAddr: 0x1810, symBinAddr: 0x100004440, symSize: 0x30 }
  - { offsetInCU: 0x1ABFC, offset: 0x3D99C, size: 0x8, addend: 0x0, symName: __ZNSt3__16vectorIN2sf14RectangleShapeENS_9allocatorIS2_EEE3endB8ue170006Ev, symObjAddr: 0x1840, symBinAddr: 0x100004470, symSize: 0x30 }
  - { offsetInCU: 0x1AC24, offset: 0x3D9C4, size: 0x8, addend: 0x0, symName: __ZNKSt3__111__wrap_iterIPN2sf14RectangleShapeEEdeB8ue170006Ev, symObjAddr: 0x18A4, symBinAddr: 0x1000044D4, symSize: 0x18 }
  - { offsetInCU: 0x1AC4A, offset: 0x3D9EA, size: 0x8, addend: 0x0, symName: __ZNSt3__111__wrap_iterIPN2sf14RectangleShapeEEppB8ue170006Ev, symObjAddr: 0x18BC, symBinAddr: 0x1000044EC, symSize: 0x20 }
  - { offsetInCU: 0x1AC70, offset: 0x3DA10, size: 0x8, addend: 0x0, symName: __ZN6Editor18drawFloatingWindowEv, symObjAddr: 0x18DC, symBinAddr: 0x10000450C, symSize: 0x924 }
  - { offsetInCU: 0x1AE07, offset: 0x3DBA7, size: 0x8, addend: 0x0, symName: __ZNK6Entity9hasSpriteEv, symObjAddr: 0x2200, symBinAddr: 0x100004E30, symSize: 0x30 }
  - { offsetInCU: 0x1AE2D, offset: 0x3DBCD, size: 0x8, addend: 0x0, symName: __ZNK6Entity10getTextureEv, symObjAddr: 0x2230, symBinAddr: 0x100004E60, symSize: 0x24 }
  - { offsetInCU: 0x1AE53, offset: 0x3DBF3, size: 0x8, addend: 0x0, symName: __ZNK6Entity20getSpriteDefinitionsEv, symObjAddr: 0x2280, symBinAddr: 0x100004EB0, symSize: 0x18 }
  - { offsetInCU: 0x1AE79, offset: 0x3DC19, size: 0x8, addend: 0x0, symName: __ZNKSt3__16vectorI16SpriteDefinitionNS_9allocatorIS1_EEEixB8ue170006Em, symObjAddr: 0x22C0, symBinAddr: 0x100004EC8, symSize: 0x2C }
  - { offsetInCU: 0x1AEC4, offset: 0x3DC64, size: 0x8, addend: 0x0, symName: __ZN2sf4TextD1Ev, symObjAddr: 0x22EC, symBinAddr: 0x100004EF4, symSize: 0x2C }
  - { offsetInCU: 0x1AEF0, offset: 0x3DC90, size: 0x8, addend: 0x0, symName: __ZNK6Entity16getCollisionSizeEv, symObjAddr: 0x2344, symBinAddr: 0x100004F20, symSize: 0x24 }
  - { offsetInCU: 0x1AF16, offset: 0x3DCB6, size: 0x8, addend: 0x0, symName: __ZN6Editor11placeEntityEN2sf7Vector2IiEE, symObjAddr: 0x23E0, symBinAddr: 0x100004F94, symSize: 0x3BC }
  - { offsetInCU: 0x1AF98, offset: 0x3DD38, size: 0x8, addend: 0x0, symName: __ZN6Entity14setTextureRectERKN2sf4RectIiEE, symObjAddr: 0x2808, symBinAddr: 0x1000053BC, symSize: 0x2C }
  - { offsetInCU: 0x1AFCC, offset: 0x3DD6C, size: 0x8, addend: 0x0, symName: __ZNSt3__16vectorINS_10unique_ptrI6EntityNS_14default_deleteIS2_EEEENS_9allocatorIS5_EEE9push_backB8ue170006EOS5_, symObjAddr: 0x2834, symBinAddr: 0x1000053E8, symSize: 0x6C }
  - { offsetInCU: 0x1B003, offset: 0x3DDA3, size: 0x8, addend: 0x0, symName: __ZNKSt3__16vectorINS_10unique_ptrI6EntityNS_14default_deleteIS2_EEEENS_9allocatorIS5_EEE5beginB8ue170006Ev, symObjAddr: 0x28CC, symBinAddr: 0x100005454, symSize: 0x30 }
  - { offsetInCU: 0x1B02B, offset: 0x3DDCB, size: 0x8, addend: 0x0, symName: __ZNKSt3__16vectorINS_10unique_ptrI6EntityNS_14default_deleteIS2_EEEENS_9allocatorIS5_EEE3endB8ue170006Ev, symObjAddr: 0x28FC, symBinAddr: 0x100005484, symSize: 0x30 }
  - { offsetInCU: 0x1B053, offset: 0x3DDF3, size: 0x8, addend: 0x0, symName: __ZNKSt3__111__wrap_iterIPKNS_10unique_ptrI6EntityNS_14default_deleteIS2_EEEEEdeB8ue170006Ev, symObjAddr: 0x2960, symBinAddr: 0x1000054E8, symSize: 0x18 }
  - { offsetInCU: 0x1B079, offset: 0x3DE19, size: 0x8, addend: 0x0, symName: __ZNKSt3__110unique_ptrI6EntityNS_14default_deleteIS1_EEEcvbB8ue170006Ev, symObjAddr: 0x2978, symBinAddr: 0x100005500, symSize: 0x34 }
  - { offsetInCU: 0x1B09F, offset: 0x3DE3F, size: 0x8, addend: 0x0, symName: __ZN2sf4RectIiEC1Eiiii, symObjAddr: 0x29AC, symBinAddr: 0x100005534, symSize: 0x4C }
  - { offsetInCU: 0x1B103, offset: 0x3DEA3, size: 0x8, addend: 0x0, symName: __ZN2sf15ContextSettingsC1Ejjjjjjb, symObjAddr: 0x29F8, symBinAddr: 0x100005580, symSize: 0x70 }
  - { offsetInCU: 0x1B18F, offset: 0x3DF2F, size: 0x8, addend: 0x0, symName: __ZNSt3__16vectorIN2sf14RectangleShapeENS_9allocatorIS2_EEE9push_backB8ue170006ERKS2_, symObjAddr: 0x2A68, symBinAddr: 0x1000055F0, symSize: 0x6C }
  - { offsetInCU: 0x1B1C6, offset: 0x3DF66, size: 0x8, addend: 0x0, symName: __ZNSt3__111__wrap_iterIPKNS_10unique_ptrI6EntityNS_14default_deleteIS2_EEEEEppB8ue170006Ev, symObjAddr: 0x2AD4, symBinAddr: 0x10000565C, symSize: 0x20 }
  - { offsetInCU: 0x1B1EC, offset: 0x3DF8C, size: 0x8, addend: 0x0, symName: __ZN6Editor20createTileThumbnailsEv, symObjAddr: 0x2AF4, symBinAddr: 0x10000567C, symSize: 0x22C }
  - { offsetInCU: 0x1B2E2, offset: 0x3E082, size: 0x8, addend: 0x0, symName: __ZNSt3__16vectorIN2sf14RectangleShapeENS_9allocatorIS2_EEE5clearB8ue170006Ev, symObjAddr: 0x2D20, symBinAddr: 0x1000058A8, symSize: 0x44 }
  - { offsetInCU: 0x1B317, offset: 0x3E0B7, size: 0x8, addend: 0x0, symName: __ZNKSt3__16vectorI16SpriteDefinitionNS_9allocatorIS1_EEE5beginB8ue170006Ev, symObjAddr: 0x2D64, symBinAddr: 0x1000058EC, symSize: 0x30 }
  - { offsetInCU: 0x1B33F, offset: 0x3E0DF, size: 0x8, addend: 0x0, symName: __ZNKSt3__16vectorI16SpriteDefinitionNS_9allocatorIS1_EEE3endB8ue170006Ev, symObjAddr: 0x2D94, symBinAddr: 0x10000591C, symSize: 0x30 }
  - { offsetInCU: 0x1B367, offset: 0x3E107, size: 0x8, addend: 0x0, symName: __ZNKSt3__111__wrap_iterIPK16SpriteDefinitionEdeB8ue170006Ev, symObjAddr: 0x2DF8, symBinAddr: 0x100005980, symSize: 0x18 }
  - { offsetInCU: 0x1B38D, offset: 0x3E12D, size: 0x8, addend: 0x0, symName: __ZNSt3__111__wrap_iterIPK16SpriteDefinitionEppB8ue170006Ev, symObjAddr: 0x2E10, symBinAddr: 0x100005998, symSize: 0x20 }
  - { offsetInCU: 0x1B3B3, offset: 0x3E153, size: 0x8, addend: 0x0, symName: __ZN6Editor25handleFloatingWindowClickEN2sf7Vector2IfEE, symObjAddr: 0x2E30, symBinAddr: 0x1000059B8, symSize: 0x274 }
  - { offsetInCU: 0x1B4F2, offset: 0x3E292, size: 0x8, addend: 0x0, symName: __ZN2sf7Vector2IfEC1IjEERKNS0_IT_EE, symObjAddr: 0x30A4, symBinAddr: 0x100005C2C, symSize: 0x34 }
  - { offsetInCU: 0x1B535, offset: 0x3E2D5, size: 0x8, addend: 0x0, symName: __ZNK2sf4RectIiE8containsEii, symObjAddr: 0x3180, symBinAddr: 0x100005D08, symSize: 0x144 }
  - { offsetInCU: 0x1B5B5, offset: 0x3E355, size: 0x8, addend: 0x0, symName: __ZNSt3__16vectorIN2sf14RectangleShapeENS_9allocatorIS2_EEEixB8ue170006Em, symObjAddr: 0x32EC, symBinAddr: 0x100005E4C, symSize: 0x2C }
  - { offsetInCU: 0x1B5EC, offset: 0x3E38C, size: 0x8, addend: 0x0, symName: __ZNK2sf4RectIfE8containsEff, symObjAddr: 0x3318, symBinAddr: 0x100005E78, symSize: 0x144 }
  - { offsetInCU: 0x1B66C, offset: 0x3E40C, size: 0x8, addend: 0x0, symName: __ZNKSt3__16vectorINS_10unique_ptrI6EntityNS_14default_deleteIS2_EEEENS_9allocatorIS5_EEEixB8ue170006Em, symObjAddr: 0x345C, symBinAddr: 0x100005FBC, symSize: 0x24 }
  - { offsetInCU: 0x1B6A3, offset: 0x3E443, size: 0x8, addend: 0x0, symName: __ZNKSt3__110unique_ptrI6EntityNS_14default_deleteIS1_EEE3getB8ue170006Ev, symObjAddr: 0x3480, symBinAddr: 0x100005FE0, symSize: 0x28 }
  - { offsetInCU: 0x1B6C9, offset: 0x3E469, size: 0x8, addend: 0x0, symName: __ZN2sf4RectIfEC1ERKNS_7Vector2IfEES5_, symObjAddr: 0x34A8, symBinAddr: 0x100006008, symSize: 0x3C }
  - { offsetInCU: 0x1B711, offset: 0x3E4B1, size: 0x8, addend: 0x0, symName: __ZN2sf7Vector2IfEC1IiEERKNS0_IT_EE, symObjAddr: 0x34E4, symBinAddr: 0x100006044, symSize: 0x34 }
  - { offsetInCU: 0x1B754, offset: 0x3E4F4, size: 0x8, addend: 0x0, symName: __ZN13EntityManagerC2Ev, symObjAddr: 0x3518, symBinAddr: 0x100006078, symSize: 0x2C }
  - { offsetInCU: 0x1B780, offset: 0x3E520, size: 0x8, addend: 0x0, symName: __ZN2sf6StringD2Ev, symObjAddr: 0x3544, symBinAddr: 0x1000060A4, symSize: 0x2C }
  - { offsetInCU: 0x1B7AC, offset: 0x3E54C, size: 0x8, addend: 0x0, symName: __ZNSt3__112basic_stringIjNS_11char_traitsIjEENS_9allocatorIjEEED1Ev, symObjAddr: 0x3570, symBinAddr: 0x1000060D0, symSize: 0x2C }
  - { offsetInCU: 0x1B7D6, offset: 0x3E576, size: 0x8, addend: 0x0, symName: __ZNSt3__112basic_stringIjNS_11char_traitsIjEENS_9allocatorIjEEED2Ev, symObjAddr: 0x359C, symBinAddr: 0x1000060FC, symSize: 0x74 }
  - { offsetInCU: 0x1B800, offset: 0x3E5A0, size: 0x8, addend: 0x0, symName: __ZNKSt3__112basic_stringIjNS_11char_traitsIjEENS_9allocatorIjEEE9__is_longB8ue170006Ev, symObjAddr: 0x3610, symBinAddr: 0x100006170, symSize: 0x38 }
  - { offsetInCU: 0x1B826, offset: 0x3E5C6, size: 0x8, addend: 0x0, symName: __ZNSt3__116allocator_traitsINS_9allocatorIjEEE10deallocateB8ue170006ERS2_Pjm, symObjAddr: 0x3648, symBinAddr: 0x1000061A8, symSize: 0x34 }
  - { offsetInCU: 0x1B868, offset: 0x3E608, size: 0x8, addend: 0x0, symName: __ZNSt3__112basic_stringIjNS_11char_traitsIjEENS_9allocatorIjEEE7__allocB8ue170006Ev, symObjAddr: 0x367C, symBinAddr: 0x1000061DC, symSize: 0x24 }
  - { offsetInCU: 0x1B88E, offset: 0x3E62E, size: 0x8, addend: 0x0, symName: __ZNSt3__112basic_stringIjNS_11char_traitsIjEENS_9allocatorIjEEE18__get_long_pointerB8ue170006Ev, symObjAddr: 0x36A0, symBinAddr: 0x100006200, symSize: 0x28 }
  - { offsetInCU: 0x1B8B4, offset: 0x3E654, size: 0x8, addend: 0x0, symName: __ZNKSt3__112basic_stringIjNS_11char_traitsIjEENS_9allocatorIjEEE14__get_long_capB8ue170006Ev, symObjAddr: 0x36C8, symBinAddr: 0x100006228, symSize: 0x30 }
  - { offsetInCU: 0x1B8DA, offset: 0x3E67A, size: 0x8, addend: 0x0, symName: __ZNKSt3__117__compressed_pairINS_12basic_stringIjNS_11char_traitsIjEENS_9allocatorIjEEE5__repES5_E5firstB8ue170006Ev, symObjAddr: 0x36F8, symBinAddr: 0x100006258, symSize: 0x24 }
  - { offsetInCU: 0x1B900, offset: 0x3E6A0, size: 0x8, addend: 0x0, symName: __ZNKSt3__122__compressed_pair_elemINS_12basic_stringIjNS_11char_traitsIjEENS_9allocatorIjEEE5__repELi0ELb0EE5__getB8ue170006Ev, symObjAddr: 0x371C, symBinAddr: 0x10000627C, symSize: 0x14 }
  - { offsetInCU: 0x1B926, offset: 0x3E6C6, size: 0x8, addend: 0x0, symName: __ZNSt3__19allocatorIjE10deallocateB8ue170006EPjm, symObjAddr: 0x3730, symBinAddr: 0x100006290, symSize: 0x40 }
  - { offsetInCU: 0x1B968, offset: 0x3E708, size: 0x8, addend: 0x0, symName: __ZNSt3__117__compressed_pairINS_12basic_stringIjNS_11char_traitsIjEENS_9allocatorIjEEE5__repES5_E6secondB8ue170006Ev, symObjAddr: 0x38A4, symBinAddr: 0x1000062D0, symSize: 0x24 }
  - { offsetInCU: 0x1B98E, offset: 0x3E72E, size: 0x8, addend: 0x0, symName: __ZNSt3__122__compressed_pair_elemINS_9allocatorIjEELi1ELb1EE5__getB8ue170006Ev, symObjAddr: 0x38C8, symBinAddr: 0x1000062F4, symSize: 0x14 }
  - { offsetInCU: 0x1B9B4, offset: 0x3E754, size: 0x8, addend: 0x0, symName: __ZNSt3__117__compressed_pairINS_12basic_stringIjNS_11char_traitsIjEENS_9allocatorIjEEE5__repES5_E5firstB8ue170006Ev, symObjAddr: 0x38DC, symBinAddr: 0x100006308, symSize: 0x24 }
  - { offsetInCU: 0x1B9DA, offset: 0x3E77A, size: 0x8, addend: 0x0, symName: __ZNSt3__122__compressed_pair_elemINS_12basic_stringIjNS_11char_traitsIjEENS_9allocatorIjEEE5__repELi0ELb0EE5__getB8ue170006Ev, symObjAddr: 0x3900, symBinAddr: 0x10000632C, symSize: 0x14 }
  - { offsetInCU: 0x1BA00, offset: 0x3E7A0, size: 0x8, addend: 0x0, symName: __ZNKSt3__111__wrap_iterIPNS_10unique_ptrI6EntityNS_14default_deleteIS2_EEEEE4baseB8ue170006Ev, symObjAddr: 0x39D0, symBinAddr: 0x100006388, symSize: 0x18 }
  - { offsetInCU: 0x1BA26, offset: 0x3E7C6, size: 0x8, addend: 0x0, symName: __ZNKSt3__111__wrap_iterIPN2sf14RectangleShapeEE4baseB8ue170006Ev, symObjAddr: 0x3A30, symBinAddr: 0x1000063E8, symSize: 0x18 }
  - { offsetInCU: 0x1BA4C, offset: 0x3E7EC, size: 0x8, addend: 0x0, symName: __ZNKSt3__112basic_stringIcNS_11char_traitsIcEENS_9allocatorIcEEE5emptyB8ue170006Ev, symObjAddr: 0x3A48, symBinAddr: 0x100006400, symSize: 0x30 }
  - { offsetInCU: 0x1BA72, offset: 0x3E812, size: 0x8, addend: 0x0, symName: __ZNKSt3__112basic_stringIcNS_11char_traitsIcEENS_9allocatorIcEEE4sizeB8ue170006Ev, symObjAddr: 0x3A78, symBinAddr: 0x100006430, symSize: 0x54 }
  - { offsetInCU: 0x1BA98, offset: 0x3E838, size: 0x8, addend: 0x0, symName: __ZNKSt3__112basic_stringIcNS_11char_traitsIcEENS_9allocatorIcEEE9__is_longB8ue170006Ev, symObjAddr: 0x3ACC, symBinAddr: 0x100006484, symSize: 0x38 }
  - { offsetInCU: 0x1BABE, offset: 0x3E85E, size: 0x8, addend: 0x0, symName: __ZNKSt3__112basic_stringIcNS_11char_traitsIcEENS_9allocatorIcEEE15__get_long_sizeB8ue170006Ev, symObjAddr: 0x3B04, symBinAddr: 0x1000064BC, symSize: 0x28 }
  - { offsetInCU: 0x1BAE4, offset: 0x3E884, size: 0x8, addend: 0x0, symName: __ZNKSt3__112basic_stringIcNS_11char_traitsIcEENS_9allocatorIcEEE16__get_short_sizeB8ue170006Ev, symObjAddr: 0x3B2C, symBinAddr: 0x1000064E4, symSize: 0x34 }
  - { offsetInCU: 0x1BB0A, offset: 0x3E8AA, size: 0x8, addend: 0x0, symName: __ZNKSt3__117__compressed_pairINS_12basic_stringIcNS_11char_traitsIcEENS_9allocatorIcEEE5__repES5_E5firstB8ue170006Ev, symObjAddr: 0x3B60, symBinAddr: 0x100006518, symSize: 0x24 }
  - { offsetInCU: 0x1BB30, offset: 0x3E8D0, size: 0x8, addend: 0x0, symName: __ZNKSt3__122__compressed_pair_elemINS_12basic_stringIcNS_11char_traitsIcEENS_9allocatorIcEEE5__repELi0ELb0EE5__getB8ue170006Ev, symObjAddr: 0x3B84, symBinAddr: 0x10000653C, symSize: 0x14 }
  - { offsetInCU: 0x1BB65, offset: 0x3E905, size: 0x8, addend: 0x0, symName: __ZNKSt3__16__lessIvvEclB8ue170006IffEEbRKT_RKT0_, symObjAddr: 0x3BEC, symBinAddr: 0x1000065A4, symSize: 0x34 }
  - { offsetInCU: 0x1BBB9, offset: 0x3E959, size: 0x8, addend: 0x0, symName: __ZN2sf4TextD2Ev, symObjAddr: 0x3C20, symBinAddr: 0x1000065D8, symSize: 0x74 }
  - { offsetInCU: 0x1BBE5, offset: 0x3E985, size: 0x8, addend: 0x0, symName: __ZThn8_N2sf4TextD1Ev, symObjAddr: 0x3C94, symBinAddr: 0x10000664C, symSize: 0x1C }
  - { offsetInCU: 0x1BBFB, offset: 0x3E99B, size: 0x8, addend: 0x0, symName: __ZN2sf11VertexArrayD1Ev, symObjAddr: 0x3CB0, symBinAddr: 0x100006668, symSize: 0x2C }
  - { offsetInCU: 0x1BC27, offset: 0x3E9C7, size: 0x8, addend: 0x0, symName: __ZN2sf11VertexArrayD2Ev, symObjAddr: 0x3CF0, symBinAddr: 0x100006694, symSize: 0x48 }
  - { offsetInCU: 0x1BC53, offset: 0x3E9F3, size: 0x8, addend: 0x0, symName: __ZNKSt3__111__wrap_iterIPKNS_10unique_ptrI6EntityNS_14default_deleteIS2_EEEEE4baseB8ue170006Ev, symObjAddr: 0x3DD4, symBinAddr: 0x100006724, symSize: 0x18 }
  - { offsetInCU: 0x1BC79, offset: 0x3EA19, size: 0x8, addend: 0x0, symName: __ZN2sf15ContextSettingsC2Ejjjjjjb, symObjAddr: 0x3DEC, symBinAddr: 0x10000673C, symSize: 0x74 }
  - { offsetInCU: 0x1BD05, offset: 0x3EAA5, size: 0x8, addend: 0x0, symName: __ZNKSt3__111__wrap_iterIPK16SpriteDefinitionE4baseB8ue170006Ev, symObjAddr: 0x3EA8, symBinAddr: 0x1000067F8, symSize: 0x18 }
  - { offsetInCU: 0x1BD2B, offset: 0x3EACB, size: 0x8, addend: 0x0, symName: __ZN2sf4RectIiEC2Ev, symObjAddr: 0x3EC0, symBinAddr: 0x100006810, symSize: 0x24 }
  - { offsetInCU: 0x1BD57, offset: 0x3EAF7, size: 0x8, addend: 0x0, symName: __ZNSt3__16vectorINS_10unique_ptrI6EntityNS_14default_deleteIS2_EEEENS_9allocatorIS5_EEEC2B8ue170006Ev, symObjAddr: 0x3EE4, symBinAddr: 0x100006834, symSize: 0x4C }
  - { offsetInCU: 0x1BD8B, offset: 0x3EB2B, size: 0x8, addend: 0x0, symName: __ZNSt3__117__compressed_pairIPNS_10unique_ptrI6EntityNS_14default_deleteIS2_EEEENS_9allocatorIS5_EEEC1B8ue170006IDnNS_18__default_init_tagEEEOT_OT0_, symObjAddr: 0x3F30, symBinAddr: 0x100006880, symSize: 0x3C }
  - { offsetInCU: 0x1BDE3, offset: 0x3EB83, size: 0x8, addend: 0x0, symName: __ZNSt3__117__compressed_pairIPNS_10unique_ptrI6EntityNS_14default_deleteIS2_EEEENS_9allocatorIS5_EEEC2B8ue170006IDnNS_18__default_init_tagEEEOT_OT0_, symObjAddr: 0x3F6C, symBinAddr: 0x1000068BC, symSize: 0x40 }
  - { offsetInCU: 0x1BE3B, offset: 0x3EBDB, size: 0x8, addend: 0x0, symName: __ZNSt3__122__compressed_pair_elemIPNS_10unique_ptrI6EntityNS_14default_deleteIS2_EEEELi0ELb0EEC2B8ue170006IDnvEEOT_, symObjAddr: 0x3FAC, symBinAddr: 0x1000068FC, symSize: 0x1C }
  - { offsetInCU: 0x1BE7D, offset: 0x3EC1D, size: 0x8, addend: 0x0, symName: __ZNSt3__122__compressed_pair_elemINS_9allocatorINS_10unique_ptrI6EntityNS_14default_deleteIS3_EEEEEELi1ELb1EEC2B8ue170006ENS_18__default_init_tagE, symObjAddr: 0x3FC8, symBinAddr: 0x100006918, symSize: 0x2C }
  - { offsetInCU: 0x1BEB2, offset: 0x3EC52, size: 0x8, addend: 0x0, symName: __ZNSt3__19allocatorINS_10unique_ptrI6EntityNS_14default_deleteIS2_EEEEEC2B8ue170006Ev, symObjAddr: 0x3FF4, symBinAddr: 0x100006944, symSize: 0x2C }
  - { offsetInCU: 0x1BEDC, offset: 0x3EC7C, size: 0x8, addend: 0x0, symName: __ZNSt3__116__non_trivial_ifILb1ENS_9allocatorINS_10unique_ptrI6EntityNS_14default_deleteIS3_EEEEEEEC2B8ue170006Ev, symObjAddr: 0x4020, symBinAddr: 0x100006970, symSize: 0x14 }
  - { offsetInCU: 0x1BF06, offset: 0x3ECA6, size: 0x8, addend: 0x0, symName: __ZN2sf7Vector2IfEC2Eff, symObjAddr: 0x44EC, symBinAddr: 0x100006984, symSize: 0x2C }
  - { offsetInCU: 0x1BF4E, offset: 0x3ECEE, size: 0x8, addend: 0x0, symName: __ZNSt3__16vectorIN2sf14RectangleShapeENS_9allocatorIS2_EEEC2B8ue170006Ev, symObjAddr: 0x4518, symBinAddr: 0x1000069B0, symSize: 0x4C }
  - { offsetInCU: 0x1BF78, offset: 0x3ED18, size: 0x8, addend: 0x0, symName: __ZNSt3__117__compressed_pairIPN2sf14RectangleShapeENS_9allocatorIS2_EEEC1B8ue170006IDnNS_18__default_init_tagEEEOT_OT0_, symObjAddr: 0x4564, symBinAddr: 0x1000069FC, symSize: 0x3C }
  - { offsetInCU: 0x1BFD0, offset: 0x3ED70, size: 0x8, addend: 0x0, symName: __ZNSt3__117__compressed_pairIPN2sf14RectangleShapeENS_9allocatorIS2_EEEC2B8ue170006IDnNS_18__default_init_tagEEEOT_OT0_, symObjAddr: 0x45A0, symBinAddr: 0x100006A38, symSize: 0x40 }
  - { offsetInCU: 0x1C028, offset: 0x3EDC8, size: 0x8, addend: 0x0, symName: __ZNSt3__122__compressed_pair_elemIPN2sf14RectangleShapeELi0ELb0EEC2B8ue170006IDnvEEOT_, symObjAddr: 0x45E0, symBinAddr: 0x100006A78, symSize: 0x1C }
  - { offsetInCU: 0x1C06A, offset: 0x3EE0A, size: 0x8, addend: 0x0, symName: __ZNSt3__122__compressed_pair_elemINS_9allocatorIN2sf14RectangleShapeEEELi1ELb1EEC2B8ue170006ENS_18__default_init_tagE, symObjAddr: 0x45FC, symBinAddr: 0x100006A94, symSize: 0x2C }
  - { offsetInCU: 0x1C09F, offset: 0x3EE3F, size: 0x8, addend: 0x0, symName: __ZNSt3__19allocatorIN2sf14RectangleShapeEEC2B8ue170006Ev, symObjAddr: 0x4628, symBinAddr: 0x100006AC0, symSize: 0x2C }
  - { offsetInCU: 0x1C0C9, offset: 0x3EE69, size: 0x8, addend: 0x0, symName: __ZNSt3__116__non_trivial_ifILb1ENS_9allocatorIN2sf14RectangleShapeEEEEC2B8ue170006Ev, symObjAddr: 0x4654, symBinAddr: 0x100006AEC, symSize: 0x14 }
  - { offsetInCU: 0x1C0F3, offset: 0x3EE93, size: 0x8, addend: 0x0, symName: __ZN2sf7Vector2IfEC2Ev, symObjAddr: 0x4668, symBinAddr: 0x100006B00, symSize: 0x20 }
  - { offsetInCU: 0x1C11F, offset: 0x3EEBF, size: 0x8, addend: 0x0, symName: __ZNSt3__16vectorIN2sf6VertexENS_9allocatorIS2_EEEC2B8ue170006Ev, symObjAddr: 0x4688, symBinAddr: 0x100006B20, symSize: 0x4C }
  - { offsetInCU: 0x1C149, offset: 0x3EEE9, size: 0x8, addend: 0x0, symName: __ZNSt3__117__compressed_pairIPN2sf6VertexENS_9allocatorIS2_EEEC1B8ue170006IDnNS_18__default_init_tagEEEOT_OT0_, symObjAddr: 0x46D4, symBinAddr: 0x100006B6C, symSize: 0x3C }
  - { offsetInCU: 0x1C1A1, offset: 0x3EF41, size: 0x8, addend: 0x0, symName: __ZNSt3__117__compressed_pairIPN2sf6VertexENS_9allocatorIS2_EEEC2B8ue170006IDnNS_18__default_init_tagEEEOT_OT0_, symObjAddr: 0x4710, symBinAddr: 0x100006BA8, symSize: 0x40 }
  - { offsetInCU: 0x1C1F9, offset: 0x3EF99, size: 0x8, addend: 0x0, symName: __ZNSt3__122__compressed_pair_elemIPN2sf6VertexELi0ELb0EEC2B8ue170006IDnvEEOT_, symObjAddr: 0x4750, symBinAddr: 0x100006BE8, symSize: 0x1C }
  - { offsetInCU: 0x1C23B, offset: 0x3EFDB, size: 0x8, addend: 0x0, symName: __ZNSt3__122__compressed_pair_elemINS_9allocatorIN2sf6VertexEEELi1ELb1EEC2B8ue170006ENS_18__default_init_tagE, symObjAddr: 0x476C, symBinAddr: 0x100006C04, symSize: 0x2C }
  - { offsetInCU: 0x1C270, offset: 0x3F010, size: 0x8, addend: 0x0, symName: __ZNSt3__19allocatorIN2sf6VertexEEC2B8ue170006Ev, symObjAddr: 0x4798, symBinAddr: 0x100006C30, symSize: 0x2C }
  - { offsetInCU: 0x1C29A, offset: 0x3F03A, size: 0x8, addend: 0x0, symName: __ZNSt3__116__non_trivial_ifILb1ENS_9allocatorIN2sf6VertexEEEEC2B8ue170006Ev, symObjAddr: 0x47C4, symBinAddr: 0x100006C5C, symSize: 0x14 }
  - { offsetInCU: 0x1C2C4, offset: 0x3F064, size: 0x8, addend: 0x0, symName: __ZNSt3__112basic_stringIcNS_11char_traitsIcEENS_9allocatorIcEEEC2B8ue170006ILi0EEEPKc, symObjAddr: 0x517C, symBinAddr: 0x100006C70, symSize: 0x58 }
  - { offsetInCU: 0x1C304, offset: 0x3F0A4, size: 0x8, addend: 0x0, symName: __ZNSt3__117__compressed_pairINS_12basic_stringIcNS_11char_traitsIcEENS_9allocatorIcEEE5__repES5_EC1B8ue170006INS_18__default_init_tagESA_EEOT_OT0_, symObjAddr: 0x51D4, symBinAddr: 0x100006CC8, symSize: 0x3C }
  - { offsetInCU: 0x1C35C, offset: 0x3F0FC, size: 0x8, addend: 0x0, symName: __ZNSt3__111char_traitsIcE6lengthB8ue170006EPKc, symObjAddr: 0x5210, symBinAddr: 0x100006D04, symSize: 0x34 }
  - { offsetInCU: 0x1C37F, offset: 0x3F11F, size: 0x8, addend: 0x0, symName: __ZNSt3__117__compressed_pairINS_12basic_stringIcNS_11char_traitsIcEENS_9allocatorIcEEE5__repES5_EC2B8ue170006INS_18__default_init_tagESA_EEOT_OT0_, symObjAddr: 0x5244, symBinAddr: 0x100006D38, symSize: 0x3C }
  - { offsetInCU: 0x1C3D7, offset: 0x3F177, size: 0x8, addend: 0x0, symName: __ZNSt3__122__compressed_pair_elemINS_12basic_stringIcNS_11char_traitsIcEENS_9allocatorIcEEE5__repELi0ELb0EEC2B8ue170006ENS_18__default_init_tagE, symObjAddr: 0x5280, symBinAddr: 0x100006D74, symSize: 0x14 }
  - { offsetInCU: 0x1C40C, offset: 0x3F1AC, size: 0x8, addend: 0x0, symName: __ZNSt3__122__compressed_pair_elemINS_9allocatorIcEELi1ELb1EEC2B8ue170006ENS_18__default_init_tagE, symObjAddr: 0x5294, symBinAddr: 0x100006D88, symSize: 0x2C }
  - { offsetInCU: 0x1C441, offset: 0x3F1E1, size: 0x8, addend: 0x0, symName: __ZNSt3__19allocatorIcEC2B8ue170006Ev, symObjAddr: 0x52C0, symBinAddr: 0x100006DB4, symSize: 0x2C }
  - { offsetInCU: 0x1C46B, offset: 0x3F20B, size: 0x8, addend: 0x0, symName: __ZNSt3__116__non_trivial_ifILb1ENS_9allocatorIcEEEC2B8ue170006Ev, symObjAddr: 0x52EC, symBinAddr: 0x100006DE0, symSize: 0x14 }
  - { offsetInCU: 0x1C4B3, offset: 0x3F253, size: 0x8, addend: 0x0, symName: __ZNKSt3__113basic_ostreamIcNS_11char_traitsIcEEE6sentrycvbB8ue170006Ev, symObjAddr: 0x5510, symBinAddr: 0x100007004, symSize: 0x1C }
  - { offsetInCU: 0x1C4D9, offset: 0x3F279, size: 0x8, addend: 0x0, symName: __ZNSt3__119ostreambuf_iteratorIcNS_11char_traitsIcEEEC1B8ue170006ERNS_13basic_ostreamIcS2_EE, symObjAddr: 0x576C, symBinAddr: 0x100007260, symSize: 0x34 }
  - { offsetInCU: 0x1C511, offset: 0x3F2B1, size: 0x8, addend: 0x0, symName: __ZNKSt3__18ios_base5flagsB8ue170006Ev, symObjAddr: 0x57A0, symBinAddr: 0x100007294, symSize: 0x18 }
  - { offsetInCU: 0x1C539, offset: 0x3F2D9, size: 0x8, addend: 0x0, symName: __ZNKSt3__19basic_iosIcNS_11char_traitsIcEEE4fillB8ue170006Ev, symObjAddr: 0x57B8, symBinAddr: 0x1000072AC, symSize: 0x64 }
  - { offsetInCU: 0x1C561, offset: 0x3F301, size: 0x8, addend: 0x0, symName: __ZNKSt3__119ostreambuf_iteratorIcNS_11char_traitsIcEEE6failedB8ue170006Ev, symObjAddr: 0x581C, symBinAddr: 0x100007310, symSize: 0x24 }
  - { offsetInCU: 0x1C587, offset: 0x3F327, size: 0x8, addend: 0x0, symName: __ZNSt3__19basic_iosIcNS_11char_traitsIcEEE8setstateB8ue170006Ej, symObjAddr: 0x5840, symBinAddr: 0x100007334, symSize: 0x2C }
  - { offsetInCU: 0x1C5BC, offset: 0x3F35C, size: 0x8, addend: 0x0, symName: __ZNKSt3__18ios_base5widthB8ue170006Ev, symObjAddr: 0x586C, symBinAddr: 0x100007360, symSize: 0x18 }
  - { offsetInCU: 0x1C5E4, offset: 0x3F384, size: 0x8, addend: 0x0, symName: __ZNSt3__115basic_streambufIcNS_11char_traitsIcEEE5sputnB8ue170006EPKcl, symObjAddr: 0x5884, symBinAddr: 0x100007378, symSize: 0x3C }
  - { offsetInCU: 0x1C626, offset: 0x3F3C6, size: 0x8, addend: 0x0, symName: __ZNSt3__112basic_stringIcNS_11char_traitsIcEENS_9allocatorIcEEEC1B8ue170006Emc, symObjAddr: 0x58C0, symBinAddr: 0x1000073B4, symSize: 0x3C }
  - { offsetInCU: 0x1C66E, offset: 0x3F40E, size: 0x8, addend: 0x0, symName: __ZNSt3__112basic_stringIcNS_11char_traitsIcEENS_9allocatorIcEEE4dataB8ue170006Ev, symObjAddr: 0x58FC, symBinAddr: 0x1000073F0, symSize: 0x28 }
  - { offsetInCU: 0x1C694, offset: 0x3F434, size: 0x8, addend: 0x0, symName: __ZNSt3__18ios_base5widthB8ue170006El, symObjAddr: 0x5924, symBinAddr: 0x100007418, symSize: 0x2C }
  - { offsetInCU: 0x1C6DA, offset: 0x3F47A, size: 0x8, addend: 0x0, symName: __ZNSt3__112basic_stringIcNS_11char_traitsIcEENS_9allocatorIcEEEC2B8ue170006Emc, symObjAddr: 0x5950, symBinAddr: 0x100007444, symSize: 0x4C }
  - { offsetInCU: 0x1C722, offset: 0x3F4C2, size: 0x8, addend: 0x0, symName: __ZNSt3__112basic_stringIcNS_11char_traitsIcEENS_9allocatorIcEEE13__get_pointerB8ue170006Ev, symObjAddr: 0x59B0, symBinAddr: 0x1000074A4, symSize: 0x54 }
  - { offsetInCU: 0x1C748, offset: 0x3F4E8, size: 0x8, addend: 0x0, symName: __ZNSt3__112basic_stringIcNS_11char_traitsIcEENS_9allocatorIcEEE18__get_long_pointerB8ue170006Ev, symObjAddr: 0x5A04, symBinAddr: 0x1000074F8, symSize: 0x28 }
  - { offsetInCU: 0x1C76E, offset: 0x3F50E, size: 0x8, addend: 0x0, symName: __ZNSt3__112basic_stringIcNS_11char_traitsIcEENS_9allocatorIcEEE19__get_short_pointerB8ue170006Ev, symObjAddr: 0x5A2C, symBinAddr: 0x100007520, symSize: 0x28 }
  - { offsetInCU: 0x1C794, offset: 0x3F534, size: 0x8, addend: 0x0, symName: __ZNSt3__117__compressed_pairINS_12basic_stringIcNS_11char_traitsIcEENS_9allocatorIcEEE5__repES5_E5firstB8ue170006Ev, symObjAddr: 0x5A54, symBinAddr: 0x100007548, symSize: 0x24 }
  - { offsetInCU: 0x1C7BA, offset: 0x3F55A, size: 0x8, addend: 0x0, symName: __ZNSt3__122__compressed_pair_elemINS_12basic_stringIcNS_11char_traitsIcEENS_9allocatorIcEEE5__repELi0ELb0EE5__getB8ue170006Ev, symObjAddr: 0x5A78, symBinAddr: 0x10000756C, symSize: 0x14 }
  - { offsetInCU: 0x1C7E0, offset: 0x3F580, size: 0x8, addend: 0x0, symName: __ZNSt3__114pointer_traitsIPcE10pointer_toB8ue170006ERc, symObjAddr: 0x5A8C, symBinAddr: 0x100007580, symSize: 0x14 }
  - { offsetInCU: 0x1C803, offset: 0x3F5A3, size: 0x8, addend: 0x0, symName: __ZNSt3__119ostreambuf_iteratorIcNS_11char_traitsIcEEEC2B8ue170006ERNS_13basic_ostreamIcS2_EE, symObjAddr: 0x5AA0, symBinAddr: 0x100007594, symSize: 0x54 }
  - { offsetInCU: 0x1C83B, offset: 0x3F5DB, size: 0x8, addend: 0x0, symName: __ZNKSt3__19basic_iosIcNS_11char_traitsIcEEE5rdbufB8ue170006Ev, symObjAddr: 0x5AF4, symBinAddr: 0x1000075E8, symSize: 0x24 }
  - { offsetInCU: 0x1C863, offset: 0x3F603, size: 0x8, addend: 0x0, symName: __ZNKSt3__18ios_base5rdbufB8ue170006Ev, symObjAddr: 0x5B18, symBinAddr: 0x10000760C, symSize: 0x18 }
  - { offsetInCU: 0x1C889, offset: 0x3F629, size: 0x8, addend: 0x0, symName: __ZNSt3__111char_traitsIcE11eq_int_typeB8ue170006Eii, symObjAddr: 0x5B30, symBinAddr: 0x100007624, symSize: 0x28 }
  - { offsetInCU: 0x1C8BC, offset: 0x3F65C, size: 0x8, addend: 0x0, symName: __ZNSt3__111char_traitsIcE3eofB8ue170006Ev, symObjAddr: 0x5B58, symBinAddr: 0x10000764C, symSize: 0x8 }
  - { offsetInCU: 0x1C8D0, offset: 0x3F670, size: 0x8, addend: 0x0, symName: __ZNKSt3__19basic_iosIcNS_11char_traitsIcEEE5widenB8ue170006Ec, symObjAddr: 0x5B60, symBinAddr: 0x100007654, symSize: 0x84 }
  - { offsetInCU: 0x1C939, offset: 0x3F6D9, size: 0x8, addend: 0x0, symName: __ZNKSt3__15ctypeIcE5widenB8ue170006Ec, symObjAddr: 0x5C10, symBinAddr: 0x100007704, symSize: 0x38 }
  - { offsetInCU: 0x1C96E, offset: 0x3F70E, size: 0x8, addend: 0x0, symName: __ZNSt3__18ios_base8setstateB8ue170006Ej, symObjAddr: 0x5C48, symBinAddr: 0x10000773C, symSize: 0x34 }
  - { offsetInCU: 0x1C9A5, offset: 0x3F745, size: 0x8, addend: 0x0, symName: __ZNSt3__16vectorIN2sf6VertexENS_9allocatorIS2_EEE9__end_capB8ue170006Ev, symObjAddr: 0x5C7C, symBinAddr: 0x100007770, symSize: 0x28 }
  - { offsetInCU: 0x1C9CB, offset: 0x3F76B, size: 0x8, addend: 0x0, symName: __ZNSt3__16vectorIN2sf6VertexENS_9allocatorIS2_EEE22__construct_one_at_endB8ue170006IJNS1_7Vector2IfEEEEEvDpOT_, symObjAddr: 0x5CA4, symBinAddr: 0x100007798, symSize: 0x90 }
  - { offsetInCU: 0x1CA1A, offset: 0x3F7BA, size: 0x8, addend: 0x0, symName: __ZNSt3__16vectorIN2sf6VertexENS_9allocatorIS2_EEE24__emplace_back_slow_pathIJNS1_7Vector2IfEEEEEvDpOT_, symObjAddr: 0x5D34, symBinAddr: 0x100007828, symSize: 0xD8 }
  - { offsetInCU: 0x1CA7A, offset: 0x3F81A, size: 0x8, addend: 0x0, symName: __ZNSt3__16vectorIN2sf6VertexENS_9allocatorIS2_EEE4backB8ue170006Ev, symObjAddr: 0x5E0C, symBinAddr: 0x100007900, symSize: 0x1C }
  - { offsetInCU: 0x1CAA0, offset: 0x3F840, size: 0x8, addend: 0x0, symName: __ZNSt3__117__compressed_pairIPN2sf6VertexENS_9allocatorIS2_EEE5firstB8ue170006Ev, symObjAddr: 0x5E28, symBinAddr: 0x10000791C, symSize: 0x24 }
  - { offsetInCU: 0x1CAC6, offset: 0x3F866, size: 0x8, addend: 0x0, symName: __ZNSt3__122__compressed_pair_elemIPN2sf6VertexELi0ELb0EE5__getB8ue170006Ev, symObjAddr: 0x5E4C, symBinAddr: 0x100007940, symSize: 0x14 }
  - { offsetInCU: 0x1CB05, offset: 0x3F8A5, size: 0x8, addend: 0x0, symName: __ZNSt3__16vectorIN2sf6VertexENS_9allocatorIS2_EEE21_ConstructTransactionC1B8ue170006ERS5_m, symObjAddr: 0x5E60, symBinAddr: 0x100007954, symSize: 0x3C }
  - { offsetInCU: 0x1CB4D, offset: 0x3F8ED, size: 0x8, addend: 0x0, symName: __ZNSt3__116allocator_traitsINS_9allocatorIN2sf6VertexEEEE9constructB8ue170006IS3_JNS2_7Vector2IfEEEvEEvRS4_PT_DpOT0_, symObjAddr: 0x5E9C, symBinAddr: 0x100007990, symSize: 0x34 }
  - { offsetInCU: 0x1CBA4, offset: 0x3F944, size: 0x8, addend: 0x0, symName: __ZNSt3__16vectorIN2sf6VertexENS_9allocatorIS2_EEE21_ConstructTransactionD1B8ue170006Ev, symObjAddr: 0x5ED0, symBinAddr: 0x1000079C4, symSize: 0x2C }
  - { offsetInCU: 0x1CBCE, offset: 0x3F96E, size: 0x8, addend: 0x0, symName: __ZNSt3__16vectorIN2sf6VertexENS_9allocatorIS2_EEE21_ConstructTransactionC2B8ue170006ERS5_m, symObjAddr: 0x5EFC, symBinAddr: 0x1000079F0, symSize: 0x4C }
  - { offsetInCU: 0x1CC16, offset: 0x3F9B6, size: 0x8, addend: 0x0, symName: __ZNSt3__19allocatorIN2sf6VertexEE9constructB8ue170006IS2_JNS1_7Vector2IfEEEEEvPT_DpOT0_, symObjAddr: 0x5F48, symBinAddr: 0x100007A3C, symSize: 0x30 }
  - { offsetInCU: 0x1CC6C, offset: 0x3FA0C, size: 0x8, addend: 0x0, symName: __ZNSt3__16vectorIN2sf6VertexENS_9allocatorIS2_EEE21_ConstructTransactionD2B8ue170006Ev, symObjAddr: 0x5F78, symBinAddr: 0x100007A6C, symSize: 0x20 }
  - { offsetInCU: 0x1CC96, offset: 0x3FA36, size: 0x8, addend: 0x0, symName: __ZNKSt3__16vectorIN2sf6VertexENS_9allocatorIS2_EEE11__recommendB8ue170006Em, symObjAddr: 0x5F98, symBinAddr: 0x100007A8C, symSize: 0xB4 }
  - { offsetInCU: 0x1CCEB, offset: 0x3FA8B, size: 0x8, addend: 0x0, symName: __ZNSt3__114__split_bufferIN2sf6VertexERNS_9allocatorIS2_EEEC1EmmS5_, symObjAddr: 0x604C, symBinAddr: 0x100007B40, symSize: 0x44 }
  - { offsetInCU: 0x1CD41, offset: 0x3FAE1, size: 0x8, addend: 0x0, symName: __ZNSt3__114__split_bufferIN2sf6VertexERNS_9allocatorIS2_EEED1Ev, symObjAddr: 0x61A0, symBinAddr: 0x100007C94, symSize: 0x2C }
  - { offsetInCU: 0x1CD6D, offset: 0x3FB0D, size: 0x8, addend: 0x0, symName: __ZNKSt3__16vectorIN2sf6VertexENS_9allocatorIS2_EEE8max_sizeEv, symObjAddr: 0x61CC, symBinAddr: 0x100007CC0, symSize: 0x60 }
  - { offsetInCU: 0x1CD95, offset: 0x3FB35, size: 0x8, addend: 0x0, symName: __ZNKSt3__16vectorIN2sf6VertexENS_9allocatorIS2_EEE20__throw_length_errorB8ue170006Ev, symObjAddr: 0x622C, symBinAddr: 0x100007D20, symSize: 0x1C }
  - { offsetInCU: 0x1CDC5, offset: 0x3FB65, size: 0x8, addend: 0x0, symName: __ZNSt3__116allocator_traitsINS_9allocatorIN2sf6VertexEEEE8max_sizeB8ue170006IS4_vEEmRKS4_, symObjAddr: 0x62A0, symBinAddr: 0x100007D94, symSize: 0x24 }
  - { offsetInCU: 0x1CDF3, offset: 0x3FB93, size: 0x8, addend: 0x0, symName: __ZNKSt3__16vectorIN2sf6VertexENS_9allocatorIS2_EEE7__allocB8ue170006Ev, symObjAddr: 0x62C4, symBinAddr: 0x100007DB8, symSize: 0x28 }
  - { offsetInCU: 0x1CE19, offset: 0x3FBB9, size: 0x8, addend: 0x0, symName: __ZNSt3__114numeric_limitsIlE3maxB8ue170006Ev, symObjAddr: 0x62EC, symBinAddr: 0x100007DE0, symSize: 0x14 }
  - { offsetInCU: 0x1CE2D, offset: 0x3FBCD, size: 0x8, addend: 0x0, symName: __ZNKSt3__16__lessIvvEclB8ue170006ImmEEbRKT_RKT0_, symObjAddr: 0x6354, symBinAddr: 0x100007E48, symSize: 0x34 }
  - { offsetInCU: 0x1CE81, offset: 0x3FC21, size: 0x8, addend: 0x0, symName: __ZNKSt3__19allocatorIN2sf6VertexEE8max_sizeB8ue170006Ev, symObjAddr: 0x6388, symBinAddr: 0x100007E7C, symSize: 0x18 }
  - { offsetInCU: 0x1CEA7, offset: 0x3FC47, size: 0x8, addend: 0x0, symName: __ZNKSt3__117__compressed_pairIPN2sf6VertexENS_9allocatorIS2_EEE6secondB8ue170006Ev, symObjAddr: 0x63A0, symBinAddr: 0x100007E94, symSize: 0x24 }
  - { offsetInCU: 0x1CECD, offset: 0x3FC6D, size: 0x8, addend: 0x0, symName: __ZNKSt3__122__compressed_pair_elemINS_9allocatorIN2sf6VertexEEELi1ELb1EE5__getB8ue170006Ev, symObjAddr: 0x63C4, symBinAddr: 0x100007EB8, symSize: 0x14 }
  - { offsetInCU: 0x1CEF3, offset: 0x3FC93, size: 0x8, addend: 0x0, symName: __ZNSt3__123__libcpp_numeric_limitsIlLb1EE3maxB8ue170006Ev, symObjAddr: 0x63D8, symBinAddr: 0x100007ECC, symSize: 0x8 }
  - { offsetInCU: 0x1CF07, offset: 0x3FCA7, size: 0x8, addend: 0x0, symName: __ZNSt12length_errorC1B8ue170006EPKc, symObjAddr: 0x6444, symBinAddr: 0x100007F38, symSize: 0x34 }
  - { offsetInCU: 0x1CF3F, offset: 0x3FCDF, size: 0x8, addend: 0x0, symName: __ZNSt12length_errorC2B8ue170006EPKc, symObjAddr: 0x6478, symBinAddr: 0x100007F6C, symSize: 0x4C }
  - { offsetInCU: 0x1CF77, offset: 0x3FD17, size: 0x8, addend: 0x0, symName: __ZNSt3__114__split_bufferIN2sf6VertexERNS_9allocatorIS2_EEEC2EmmS5_, symObjAddr: 0x6518, symBinAddr: 0x10000800C, symSize: 0xE0 }
  - { offsetInCU: 0x1CFEA, offset: 0x3FD8A, size: 0x8, addend: 0x0, symName: __ZNSt3__117__compressed_pairIPN2sf6VertexERNS_9allocatorIS2_EEEC1B8ue170006IDnS6_EEOT_OT0_, symObjAddr: 0x65F8, symBinAddr: 0x1000080EC, symSize: 0x3C }
  - { offsetInCU: 0x1D042, offset: 0x3FDE2, size: 0x8, addend: 0x0, symName: __ZNSt3__114__split_bufferIN2sf6VertexERNS_9allocatorIS2_EEE7__allocB8ue170006Ev, symObjAddr: 0x6674, symBinAddr: 0x100008168, symSize: 0x28 }
  - { offsetInCU: 0x1D068, offset: 0x3FE08, size: 0x8, addend: 0x0, symName: __ZNSt3__114__split_bufferIN2sf6VertexERNS_9allocatorIS2_EEE9__end_capB8ue170006Ev, symObjAddr: 0x669C, symBinAddr: 0x100008190, symSize: 0x28 }
  - { offsetInCU: 0x1D08E, offset: 0x3FE2E, size: 0x8, addend: 0x0, symName: __ZNSt3__117__compressed_pairIPN2sf6VertexERNS_9allocatorIS2_EEEC2B8ue170006IDnS6_EEOT_OT0_, symObjAddr: 0x66C4, symBinAddr: 0x1000081B8, symSize: 0x48 }
  - { offsetInCU: 0x1D0E6, offset: 0x3FE86, size: 0x8, addend: 0x0, symName: __ZNSt3__122__compressed_pair_elemIRNS_9allocatorIN2sf6VertexEEELi1ELb0EEC2B8ue170006IS5_vEEOT_, symObjAddr: 0x670C, symBinAddr: 0x100008200, symSize: 0x20 }
  - { offsetInCU: 0x1D128, offset: 0x3FEC8, size: 0x8, addend: 0x0, symName: __ZNSt3__19allocatorIN2sf6VertexEE8allocateB8ue170006Em, symObjAddr: 0x672C, symBinAddr: 0x100008220, symSize: 0x5C }
  - { offsetInCU: 0x1D15C, offset: 0x3FEFC, size: 0x8, addend: 0x0, symName: __ZNSt3__117__compressed_pairIPN2sf6VertexERNS_9allocatorIS2_EEE6secondB8ue170006Ev, symObjAddr: 0x686C, symBinAddr: 0x100008360, symSize: 0x28 }
  - { offsetInCU: 0x1D182, offset: 0x3FF22, size: 0x8, addend: 0x0, symName: __ZNSt3__122__compressed_pair_elemIRNS_9allocatorIN2sf6VertexEEELi1ELb0EE5__getB8ue170006Ev, symObjAddr: 0x6894, symBinAddr: 0x100008388, symSize: 0x18 }
  - { offsetInCU: 0x1D1A8, offset: 0x3FF48, size: 0x8, addend: 0x0, symName: __ZNSt3__117__compressed_pairIPN2sf6VertexERNS_9allocatorIS2_EEE5firstB8ue170006Ev, symObjAddr: 0x68AC, symBinAddr: 0x1000083A0, symSize: 0x24 }
  - { offsetInCU: 0x1D1CE, offset: 0x3FF6E, size: 0x8, addend: 0x0, symName: __ZNSt3__116reverse_iteratorIPN2sf6VertexEEC1B8ue170006ES3_, symObjAddr: 0x6948, symBinAddr: 0x10000843C, symSize: 0x34 }
  - { offsetInCU: 0x1D206, offset: 0x3FFA6, size: 0x8, addend: 0x0, symName: __ZNKSt3__116reverse_iteratorIPN2sf6VertexEE4baseB8ue170006Ev, symObjAddr: 0x697C, symBinAddr: 0x100008470, symSize: 0x18 }
  - { offsetInCU: 0x1D22C, offset: 0x3FFCC, size: 0x8, addend: 0x0, symName: __ZNKSt3__16vectorIN2sf6VertexENS_9allocatorIS2_EEE14__annotate_newB8ue170006Em, symObjAddr: 0x69D0, symBinAddr: 0x1000084C4, symSize: 0xC8 }
  - { offsetInCU: 0x1D284, offset: 0x40024, size: 0x8, addend: 0x0, symName: __ZNKSt3__111__move_loopINS_17_ClassicAlgPolicyEEclB8ue170006INS_16reverse_iteratorIPN2sf6VertexEEES8_S8_EENS_4pairIT_T1_EESA_T0_SB_, symObjAddr: 0x6D88, symBinAddr: 0x10000887C, symSize: 0xA8 }
  - { offsetInCU: 0x1D2F4, offset: 0x40094, size: 0x8, addend: 0x0, symName: __ZNSt3__18_IterOpsINS_17_ClassicAlgPolicyEE11__iter_moveB8ue170006IRNS_16reverse_iteratorIPN2sf6VertexEEEEENS_9enable_ifIXsr12is_referenceIDTdeclsr3stdE7declvalIRT_EEEEE5valueEDTclsr3stdE4movedeclsr3stdE7declvalISC_EEEEE4typeEOSB_, symObjAddr: 0x6FC4, symBinAddr: 0x100008AB8, symSize: 0x28 }
  - { offsetInCU: 0x1D320, offset: 0x400C0, size: 0x8, addend: 0x0, symName: __ZNKSt3__116reverse_iteratorIPN2sf6VertexEEdeB8ue170006Ev, symObjAddr: 0x6FEC, symBinAddr: 0x100008AE0, symSize: 0x28 }
  - { offsetInCU: 0x1D355, offset: 0x400F5, size: 0x8, addend: 0x0, symName: __ZNSt3__116reverse_iteratorIPN2sf6VertexEEppB8ue170006Ev, symObjAddr: 0x7014, symBinAddr: 0x100008B08, symSize: 0x20 }
  - { offsetInCU: 0x1D37B, offset: 0x4011B, size: 0x8, addend: 0x0, symName: __ZNSt3__18_IterOpsINS_17_ClassicAlgPolicyEE25__validate_iter_referenceB8ue170006IRNS_16reverse_iteratorIPN2sf6VertexEEEEEvv, symObjAddr: 0x7034, symBinAddr: 0x100008B28, symSize: 0x4 }
  - { offsetInCU: 0x1D399, offset: 0x40139, size: 0x8, addend: 0x0, symName: __ZNSt3__118__unwrap_iter_implINS_16reverse_iteratorIPN2sf6VertexEEELb0EE8__unwrapB8ue170006ES5_, symObjAddr: 0x7038, symBinAddr: 0x100008B2C, symSize: 0x24 }
  - { offsetInCU: 0x1D3C1, offset: 0x40161, size: 0x8, addend: 0x0, symName: __ZNSt3__14pairINS_16reverse_iteratorIPN2sf6VertexEEES5_EC1B8ue170006IS5_S5_LPv0EEEOT_OT0_, symObjAddr: 0x705C, symBinAddr: 0x100008B50, symSize: 0x3C }
  - { offsetInCU: 0x1D420, offset: 0x401C0, size: 0x8, addend: 0x0, symName: __ZNSt3__14pairINS_16reverse_iteratorIPN2sf6VertexEEES5_EC2B8ue170006IS5_S5_LPv0EEEOT_OT0_, symObjAddr: 0x7098, symBinAddr: 0x100008B8C, symSize: 0x34 }
  - { offsetInCU: 0x1D47F, offset: 0x4021F, size: 0x8, addend: 0x0, symName: __ZNSt3__118__unwrap_iter_implINS_16reverse_iteratorIPN2sf6VertexEEELb0EE8__rewrapB8ue170006ES5_S5_, symObjAddr: 0x70CC, symBinAddr: 0x100008BC0, symSize: 0x2C }
  - { offsetInCU: 0x1D4AD, offset: 0x4024D, size: 0x8, addend: 0x0, symName: __ZNSt3__116reverse_iteratorIPN2sf6VertexEEC2B8ue170006ES3_, symObjAddr: 0x70F8, symBinAddr: 0x100008BEC, symSize: 0x28 }
  - { offsetInCU: 0x1D4E5, offset: 0x40285, size: 0x8, addend: 0x0, symName: __ZNSt3__114__split_bufferIN2sf6VertexERNS_9allocatorIS2_EEED2Ev, symObjAddr: 0x7120, symBinAddr: 0x100008C14, symSize: 0x8C }
  - { offsetInCU: 0x1D511, offset: 0x402B1, size: 0x8, addend: 0x0, symName: __ZNSt3__114__split_bufferIN2sf6VertexERNS_9allocatorIS2_EEE5clearB8ue170006Ev, symObjAddr: 0x71AC, symBinAddr: 0x100008CA0, symSize: 0x28 }
  - { offsetInCU: 0x1D537, offset: 0x402D7, size: 0x8, addend: 0x0, symName: __ZNKSt3__114__split_bufferIN2sf6VertexERNS_9allocatorIS2_EEE8capacityB8ue170006Ev, symObjAddr: 0x71D4, symBinAddr: 0x100008CC8, symSize: 0x40 }
  - { offsetInCU: 0x1D55D, offset: 0x402FD, size: 0x8, addend: 0x0, symName: __ZNSt3__114__split_bufferIN2sf6VertexERNS_9allocatorIS2_EEE17__destruct_at_endB8ue170006EPS2_, symObjAddr: 0x7214, symBinAddr: 0x100008D08, symSize: 0x2C }
  - { offsetInCU: 0x1D591, offset: 0x40331, size: 0x8, addend: 0x0, symName: __ZNSt3__114__split_bufferIN2sf6VertexERNS_9allocatorIS2_EEE17__destruct_at_endB8ue170006EPS2_NS_17integral_constantIbLb0EEE, symObjAddr: 0x7240, symBinAddr: 0x100008D34, symSize: 0x80 }
  - { offsetInCU: 0x1D5D2, offset: 0x40372, size: 0x8, addend: 0x0, symName: __ZNKSt3__114__split_bufferIN2sf6VertexERNS_9allocatorIS2_EEE9__end_capB8ue170006Ev, symObjAddr: 0x72C0, symBinAddr: 0x100008DB4, symSize: 0x28 }
  - { offsetInCU: 0x1D5F8, offset: 0x40398, size: 0x8, addend: 0x0, symName: __ZNKSt3__117__compressed_pairIPN2sf6VertexERNS_9allocatorIS2_EEE5firstB8ue170006Ev, symObjAddr: 0x72E8, symBinAddr: 0x100008DDC, symSize: 0x24 }
  - { offsetInCU: 0x1D61E, offset: 0x403BE, size: 0x8, addend: 0x0, symName: __ZN2sf7Vector2IiEC2Eii, symObjAddr: 0x730C, symBinAddr: 0x100008E00, symSize: 0x2C }
  - { offsetInCU: 0x1D666, offset: 0x40406, size: 0x8, addend: 0x0, symName: __ZNSt3__16vectorINS_10unique_ptrI6EntityNS_14default_deleteIS2_EEEENS_9allocatorIS5_EEE11__make_iterB8ue170006EPS5_, symObjAddr: 0x7338, symBinAddr: 0x100008E2C, symSize: 0x30 }
  - { offsetInCU: 0x1D69B, offset: 0x4043B, size: 0x8, addend: 0x0, symName: __ZNSt3__111__wrap_iterIPNS_10unique_ptrI6EntityNS_14default_deleteIS2_EEEEEC1B8ue170006ES6_, symObjAddr: 0x7368, symBinAddr: 0x100008E5C, symSize: 0x34 }
  - { offsetInCU: 0x1D6D3, offset: 0x40473, size: 0x8, addend: 0x0, symName: __ZNSt3__111__wrap_iterIPNS_10unique_ptrI6EntityNS_14default_deleteIS2_EEEEEC2B8ue170006ES6_, symObjAddr: 0x739C, symBinAddr: 0x100008E90, symSize: 0x20 }
  - { offsetInCU: 0x1D70B, offset: 0x404AB, size: 0x8, addend: 0x0, symName: __ZNKSt3__117__compressed_pairIP6EntityNS_14default_deleteIS1_EEE5firstB8ue170006Ev, symObjAddr: 0x73BC, symBinAddr: 0x100008EB0, symSize: 0x24 }
  - { offsetInCU: 0x1D731, offset: 0x404D1, size: 0x8, addend: 0x0, symName: __ZNKSt3__122__compressed_pair_elemIP6EntityLi0ELb0EE5__getB8ue170006Ev, symObjAddr: 0x73E0, symBinAddr: 0x100008ED4, symSize: 0x14 }
  - { offsetInCU: 0x1D757, offset: 0x404F7, size: 0x8, addend: 0x0, symName: __ZNSt3__16vectorIN2sf14RectangleShapeENS_9allocatorIS2_EEE11__make_iterB8ue170006EPS2_, symObjAddr: 0x73F4, symBinAddr: 0x100008EE8, symSize: 0x30 }
  - { offsetInCU: 0x1D78C, offset: 0x4052C, size: 0x8, addend: 0x0, symName: __ZNSt3__111__wrap_iterIPN2sf14RectangleShapeEEC1B8ue170006ES3_, symObjAddr: 0x7424, symBinAddr: 0x100008F18, symSize: 0x34 }
  - { offsetInCU: 0x1D7C4, offset: 0x40564, size: 0x8, addend: 0x0, symName: __ZNSt3__111__wrap_iterIPN2sf14RectangleShapeEEC2B8ue170006ES3_, symObjAddr: 0x7458, symBinAddr: 0x100008F4C, symSize: 0x20 }
  - { offsetInCU: 0x1D7FC, offset: 0x4059C, size: 0x8, addend: 0x0, symName: __ZNSt3__110unique_ptrI6EntityNS_14default_deleteIS1_EEEC1B8ue170006ILb1EvEEPS1_, symObjAddr: 0x7478, symBinAddr: 0x100008F6C, symSize: 0x34 }
  - { offsetInCU: 0x1D83F, offset: 0x405DF, size: 0x8, addend: 0x0, symName: __ZNSt3__110unique_ptrI6EntityNS_14default_deleteIS1_EEEC2B8ue170006ILb1EvEEPS1_, symObjAddr: 0x74AC, symBinAddr: 0x100008FA0, symSize: 0x44 }
  - { offsetInCU: 0x1D887, offset: 0x40627, size: 0x8, addend: 0x0, symName: __ZNSt3__117__compressed_pairIP6EntityNS_14default_deleteIS1_EEEC1B8ue170006IRS2_NS_16__value_init_tagEEEOT_OT0_, symObjAddr: 0x74F0, symBinAddr: 0x100008FE4, symSize: 0x3C }
  - { offsetInCU: 0x1D8DF, offset: 0x4067F, size: 0x8, addend: 0x0, symName: __ZNSt3__117__compressed_pairIP6EntityNS_14default_deleteIS1_EEEC2B8ue170006IRS2_NS_16__value_init_tagEEEOT_OT0_, symObjAddr: 0x752C, symBinAddr: 0x100009020, symSize: 0x40 }
  - { offsetInCU: 0x1D937, offset: 0x406D7, size: 0x8, addend: 0x0, symName: __ZNSt3__122__compressed_pair_elemIP6EntityLi0ELb0EEC2B8ue170006IRS2_vEEOT_, symObjAddr: 0x756C, symBinAddr: 0x100009060, symSize: 0x24 }
  - { offsetInCU: 0x1D979, offset: 0x40719, size: 0x8, addend: 0x0, symName: __ZNSt3__122__compressed_pair_elemINS_14default_deleteI6EntityEELi1ELb1EEC2B8ue170006ENS_16__value_init_tagE, symObjAddr: 0x7590, symBinAddr: 0x100009084, symSize: 0x14 }
  - { offsetInCU: 0x1D9B3, offset: 0x40753, size: 0x8, addend: 0x0, symName: __ZNSt3__16vectorINS_10unique_ptrI6EntityNS_14default_deleteIS2_EEEENS_9allocatorIS5_EEE9__end_capB8ue170006Ev, symObjAddr: 0x80E4, symBinAddr: 0x100009098, symSize: 0x28 }
  - { offsetInCU: 0x1D9D9, offset: 0x40779, size: 0x8, addend: 0x0, symName: __ZNSt3__16vectorINS_10unique_ptrI6EntityNS_14default_deleteIS2_EEEENS_9allocatorIS5_EEE22__construct_one_at_endB8ue170006IJS5_EEEvDpOT_, symObjAddr: 0x810C, symBinAddr: 0x1000090C0, symSize: 0x90 }
  - { offsetInCU: 0x1DA28, offset: 0x407C8, size: 0x8, addend: 0x0, symName: __ZNSt3__16vectorINS_10unique_ptrI6EntityNS_14default_deleteIS2_EEEENS_9allocatorIS5_EEE21__push_back_slow_pathIS5_EEvOT_, symObjAddr: 0x819C, symBinAddr: 0x100009150, symSize: 0xD8 }
  - { offsetInCU: 0x1DA86, offset: 0x40826, size: 0x8, addend: 0x0, symName: __ZNSt3__117__compressed_pairIPNS_10unique_ptrI6EntityNS_14default_deleteIS2_EEEENS_9allocatorIS5_EEE5firstB8ue170006Ev, symObjAddr: 0x8274, symBinAddr: 0x100009228, symSize: 0x24 }
  - { offsetInCU: 0x1DAAC, offset: 0x4084C, size: 0x8, addend: 0x0, symName: __ZNSt3__122__compressed_pair_elemIPNS_10unique_ptrI6EntityNS_14default_deleteIS2_EEEELi0ELb0EE5__getB8ue170006Ev, symObjAddr: 0x8298, symBinAddr: 0x10000924C, symSize: 0x14 }
  - { offsetInCU: 0x1DAEB, offset: 0x4088B, size: 0x8, addend: 0x0, symName: __ZNSt3__16vectorINS_10unique_ptrI6EntityNS_14default_deleteIS2_EEEENS_9allocatorIS5_EEE21_ConstructTransactionC1B8ue170006ERS8_m, symObjAddr: 0x82AC, symBinAddr: 0x100009260, symSize: 0x3C }
  - { offsetInCU: 0x1DB33, offset: 0x408D3, size: 0x8, addend: 0x0, symName: __ZNSt3__116allocator_traitsINS_9allocatorINS_10unique_ptrI6EntityNS_14default_deleteIS3_EEEEEEE9constructB8ue170006IS6_JS6_EvEEvRS7_PT_DpOT0_, symObjAddr: 0x82E8, symBinAddr: 0x10000929C, symSize: 0x34 }
  - { offsetInCU: 0x1DB8A, offset: 0x4092A, size: 0x8, addend: 0x0, symName: __ZNSt3__16vectorINS_10unique_ptrI6EntityNS_14default_deleteIS2_EEEENS_9allocatorIS5_EEE21_ConstructTransactionD1B8ue170006Ev, symObjAddr: 0x831C, symBinAddr: 0x1000092D0, symSize: 0x2C }
  - { offsetInCU: 0x1DBB4, offset: 0x40954, size: 0x8, addend: 0x0, symName: __ZNSt3__16vectorINS_10unique_ptrI6EntityNS_14default_deleteIS2_EEEENS_9allocatorIS5_EEE21_ConstructTransactionC2B8ue170006ERS8_m, symObjAddr: 0x8348, symBinAddr: 0x1000092FC, symSize: 0x44 }
  - { offsetInCU: 0x1DBFC, offset: 0x4099C, size: 0x8, addend: 0x0, symName: __ZNSt3__19allocatorINS_10unique_ptrI6EntityNS_14default_deleteIS2_EEEEE9constructB8ue170006IS5_JS5_EEEvPT_DpOT0_, symObjAddr: 0x838C, symBinAddr: 0x100009340, symSize: 0x30 }
  - { offsetInCU: 0x1DC52, offset: 0x409F2, size: 0x8, addend: 0x0, symName: __ZNSt3__110unique_ptrI6EntityNS_14default_deleteIS1_EEEC1B8ue170006EOS4_, symObjAddr: 0x83BC, symBinAddr: 0x100009370, symSize: 0x34 }
  - { offsetInCU: 0x1DC8A, offset: 0x40A2A, size: 0x8, addend: 0x0, symName: __ZNSt3__110unique_ptrI6EntityNS_14default_deleteIS1_EEEC2B8ue170006EOS4_, symObjAddr: 0x83F0, symBinAddr: 0x1000093A4, symSize: 0x60 }
  - { offsetInCU: 0x1DCC2, offset: 0x40A62, size: 0x8, addend: 0x0, symName: __ZNSt3__110unique_ptrI6EntityNS_14default_deleteIS1_EEE7releaseB8ue170006Ev, symObjAddr: 0x8450, symBinAddr: 0x100009404, symSize: 0x44 }
  - { offsetInCU: 0x1DCF7, offset: 0x40A97, size: 0x8, addend: 0x0, symName: __ZNSt3__110unique_ptrI6EntityNS_14default_deleteIS1_EEE11get_deleterB8ue170006Ev, symObjAddr: 0x8494, symBinAddr: 0x100009448, symSize: 0x24 }
  - { offsetInCU: 0x1DD27, offset: 0x40AC7, size: 0x8, addend: 0x0, symName: __ZNSt3__117__compressed_pairIP6EntityNS_14default_deleteIS1_EEEC1B8ue170006IS2_S4_EEOT_OT0_, symObjAddr: 0x84B8, symBinAddr: 0x10000946C, symSize: 0x3C }
  - { offsetInCU: 0x1DD7F, offset: 0x40B1F, size: 0x8, addend: 0x0, symName: __ZNSt3__117__compressed_pairIP6EntityNS_14default_deleteIS1_EEEC2B8ue170006IS2_S4_EEOT_OT0_, symObjAddr: 0x84F4, symBinAddr: 0x1000094A8, symSize: 0x44 }
  - { offsetInCU: 0x1DDD7, offset: 0x40B77, size: 0x8, addend: 0x0, symName: __ZNSt3__122__compressed_pair_elemIP6EntityLi0ELb0EEC2B8ue170006IS2_vEEOT_, symObjAddr: 0x8538, symBinAddr: 0x1000094EC, symSize: 0x24 }
  - { offsetInCU: 0x1DE19, offset: 0x40BB9, size: 0x8, addend: 0x0, symName: __ZNSt3__122__compressed_pair_elemINS_14default_deleteI6EntityEELi1ELb1EEC2B8ue170006IS3_vEEOT_, symObjAddr: 0x855C, symBinAddr: 0x100009510, symSize: 0x18 }
  - { offsetInCU: 0x1DE5B, offset: 0x40BFB, size: 0x8, addend: 0x0, symName: __ZNSt3__16vectorINS_10unique_ptrI6EntityNS_14default_deleteIS2_EEEENS_9allocatorIS5_EEE21_ConstructTransactionD2B8ue170006Ev, symObjAddr: 0x8574, symBinAddr: 0x100009528, symSize: 0x20 }
  - { offsetInCU: 0x1DE85, offset: 0x40C25, size: 0x8, addend: 0x0, symName: __ZNKSt3__16vectorINS_10unique_ptrI6EntityNS_14default_deleteIS2_EEEENS_9allocatorIS5_EEE11__recommendB8ue170006Em, symObjAddr: 0x8594, symBinAddr: 0x100009548, symSize: 0xB4 }
  - { offsetInCU: 0x1DEDA, offset: 0x40C7A, size: 0x8, addend: 0x0, symName: __ZNSt3__114__split_bufferINS_10unique_ptrI6EntityNS_14default_deleteIS2_EEEERNS_9allocatorIS5_EEEC1EmmS8_, symObjAddr: 0x8648, symBinAddr: 0x1000095FC, symSize: 0x44 }
  - { offsetInCU: 0x1DF30, offset: 0x40CD0, size: 0x8, addend: 0x0, symName: __ZNSt3__114__split_bufferINS_10unique_ptrI6EntityNS_14default_deleteIS2_EEEERNS_9allocatorIS5_EEED1Ev, symObjAddr: 0x879C, symBinAddr: 0x100009750, symSize: 0x2C }
  - { offsetInCU: 0x1DF5C, offset: 0x40CFC, size: 0x8, addend: 0x0, symName: __ZNKSt3__16vectorINS_10unique_ptrI6EntityNS_14default_deleteIS2_EEEENS_9allocatorIS5_EEE8max_sizeEv, symObjAddr: 0x87C8, symBinAddr: 0x10000977C, symSize: 0x60 }
  - { offsetInCU: 0x1DF84, offset: 0x40D24, size: 0x8, addend: 0x0, symName: __ZNKSt3__16vectorINS_10unique_ptrI6EntityNS_14default_deleteIS2_EEEENS_9allocatorIS5_EEE20__throw_length_errorB8ue170006Ev, symObjAddr: 0x8828, symBinAddr: 0x1000097DC, symSize: 0x1C }
  - { offsetInCU: 0x1DFB4, offset: 0x40D54, size: 0x8, addend: 0x0, symName: __ZNSt3__116allocator_traitsINS_9allocatorINS_10unique_ptrI6EntityNS_14default_deleteIS3_EEEEEEE8max_sizeB8ue170006IS7_vEEmRKS7_, symObjAddr: 0x8844, symBinAddr: 0x1000097F8, symSize: 0x24 }
  - { offsetInCU: 0x1DFE2, offset: 0x40D82, size: 0x8, addend: 0x0, symName: __ZNKSt3__16vectorINS_10unique_ptrI6EntityNS_14default_deleteIS2_EEEENS_9allocatorIS5_EEE7__allocB8ue170006Ev, symObjAddr: 0x8868, symBinAddr: 0x10000981C, symSize: 0x28 }
  - { offsetInCU: 0x1E008, offset: 0x40DA8, size: 0x8, addend: 0x0, symName: __ZNKSt3__19allocatorINS_10unique_ptrI6EntityNS_14default_deleteIS2_EEEEE8max_sizeB8ue170006Ev, symObjAddr: 0x8890, symBinAddr: 0x100009844, symSize: 0x14 }
  - { offsetInCU: 0x1E02E, offset: 0x40DCE, size: 0x8, addend: 0x0, symName: __ZNKSt3__117__compressed_pairIPNS_10unique_ptrI6EntityNS_14default_deleteIS2_EEEENS_9allocatorIS5_EEE6secondB8ue170006Ev, symObjAddr: 0x88A4, symBinAddr: 0x100009858, symSize: 0x24 }
  - { offsetInCU: 0x1E054, offset: 0x40DF4, size: 0x8, addend: 0x0, symName: __ZNKSt3__122__compressed_pair_elemINS_9allocatorINS_10unique_ptrI6EntityNS_14default_deleteIS3_EEEEEELi1ELb1EE5__getB8ue170006Ev, symObjAddr: 0x88C8, symBinAddr: 0x10000987C, symSize: 0x14 }
  - { offsetInCU: 0x1E07A, offset: 0x40E1A, size: 0x8, addend: 0x0, symName: __ZNSt3__114__split_bufferINS_10unique_ptrI6EntityNS_14default_deleteIS2_EEEERNS_9allocatorIS5_EEEC2EmmS8_, symObjAddr: 0x88DC, symBinAddr: 0x100009890, symSize: 0xD4 }
  - { offsetInCU: 0x1E0ED, offset: 0x40E8D, size: 0x8, addend: 0x0, symName: __ZNSt3__117__compressed_pairIPNS_10unique_ptrI6EntityNS_14default_deleteIS2_EEEERNS_9allocatorIS5_EEEC1B8ue170006IDnS9_EEOT_OT0_, symObjAddr: 0x89B0, symBinAddr: 0x100009964, symSize: 0x3C }
  - { offsetInCU: 0x1E145, offset: 0x40EE5, size: 0x8, addend: 0x0, symName: __ZNSt3__114__split_bufferINS_10unique_ptrI6EntityNS_14default_deleteIS2_EEEERNS_9allocatorIS5_EEE7__allocB8ue170006Ev, symObjAddr: 0x8A2C, symBinAddr: 0x1000099E0, symSize: 0x28 }
  - { offsetInCU: 0x1E16B, offset: 0x40F0B, size: 0x8, addend: 0x0, symName: __ZNSt3__114__split_bufferINS_10unique_ptrI6EntityNS_14default_deleteIS2_EEEERNS_9allocatorIS5_EEE9__end_capB8ue170006Ev, symObjAddr: 0x8A54, symBinAddr: 0x100009A08, symSize: 0x28 }
  - { offsetInCU: 0x1E191, offset: 0x40F31, size: 0x8, addend: 0x0, symName: __ZNSt3__117__compressed_pairIPNS_10unique_ptrI6EntityNS_14default_deleteIS2_EEEERNS_9allocatorIS5_EEEC2B8ue170006IDnS9_EEOT_OT0_, symObjAddr: 0x8A7C, symBinAddr: 0x100009A30, symSize: 0x48 }
  - { offsetInCU: 0x1E1E9, offset: 0x40F89, size: 0x8, addend: 0x0, symName: __ZNSt3__122__compressed_pair_elemIRNS_9allocatorINS_10unique_ptrI6EntityNS_14default_deleteIS3_EEEEEELi1ELb0EEC2B8ue170006IS8_vEEOT_, symObjAddr: 0x8AC4, symBinAddr: 0x100009A78, symSize: 0x20 }
  - { offsetInCU: 0x1E22B, offset: 0x40FCB, size: 0x8, addend: 0x0, symName: __ZNSt3__19allocatorINS_10unique_ptrI6EntityNS_14default_deleteIS2_EEEEE8allocateB8ue170006Em, symObjAddr: 0x8AE4, symBinAddr: 0x100009A98, symSize: 0x58 }
  - { offsetInCU: 0x1E25F, offset: 0x40FFF, size: 0x8, addend: 0x0, symName: __ZNSt3__117__compressed_pairIPNS_10unique_ptrI6EntityNS_14default_deleteIS2_EEEERNS_9allocatorIS5_EEE6secondB8ue170006Ev, symObjAddr: 0x8B3C, symBinAddr: 0x100009AF0, symSize: 0x28 }
  - { offsetInCU: 0x1E285, offset: 0x41025, size: 0x8, addend: 0x0, symName: __ZNSt3__122__compressed_pair_elemIRNS_9allocatorINS_10unique_ptrI6EntityNS_14default_deleteIS3_EEEEEELi1ELb0EE5__getB8ue170006Ev, symObjAddr: 0x8B64, symBinAddr: 0x100009B18, symSize: 0x18 }
  - { offsetInCU: 0x1E2AB, offset: 0x4104B, size: 0x8, addend: 0x0, symName: __ZNSt3__117__compressed_pairIPNS_10unique_ptrI6EntityNS_14default_deleteIS2_EEEERNS_9allocatorIS5_EEE5firstB8ue170006Ev, symObjAddr: 0x8B7C, symBinAddr: 0x100009B30, symSize: 0x24 }
  - { offsetInCU: 0x1E2D1, offset: 0x41071, size: 0x8, addend: 0x0, symName: __ZNSt3__116reverse_iteratorIPNS_10unique_ptrI6EntityNS_14default_deleteIS2_EEEEEC1B8ue170006ES6_, symObjAddr: 0x8CCC, symBinAddr: 0x100009C80, symSize: 0x34 }
  - { offsetInCU: 0x1E309, offset: 0x410A9, size: 0x8, addend: 0x0, symName: __ZNKSt3__116reverse_iteratorIPNS_10unique_ptrI6EntityNS_14default_deleteIS2_EEEEE4baseB8ue170006Ev, symObjAddr: 0x8D00, symBinAddr: 0x100009CB4, symSize: 0x18 }
  - { offsetInCU: 0x1E32F, offset: 0x410CF, size: 0x8, addend: 0x0, symName: __ZNKSt3__16vectorINS_10unique_ptrI6EntityNS_14default_deleteIS2_EEEENS_9allocatorIS5_EEE14__annotate_newB8ue170006Em, symObjAddr: 0x8D54, symBinAddr: 0x100009D08, symSize: 0xAC }
  - { offsetInCU: 0x1E364, offset: 0x41104, size: 0x8, addend: 0x0, symName: __ZNSt3__129_AllocatorDestroyRangeReverseINS_9allocatorINS_10unique_ptrI6EntityNS_14default_deleteIS3_EEEEEENS_16reverse_iteratorIPS6_EEEC1B8ue170006ERS7_RSA_SD_, symObjAddr: 0x8E4C, symBinAddr: 0x100009E00, symSize: 0x44 }
  - { offsetInCU: 0x1E3BB, offset: 0x4115B, size: 0x8, addend: 0x0, symName: __ZNKSt3__116reverse_iteratorIPNS_10unique_ptrI6EntityNS_14default_deleteIS2_EEEEEdeB8ue170006Ev, symObjAddr: 0x8EFC, symBinAddr: 0x100009EB0, symSize: 0x28 }
  - { offsetInCU: 0x1E3F0, offset: 0x41190, size: 0x8, addend: 0x0, symName: __ZNSt3__116reverse_iteratorIPNS_10unique_ptrI6EntityNS_14default_deleteIS2_EEEEEppB8ue170006Ev, symObjAddr: 0x8F24, symBinAddr: 0x100009ED8, symSize: 0x20 }
  - { offsetInCU: 0x1E416, offset: 0x411B6, size: 0x8, addend: 0x0, symName: __ZNSt3__128__exception_guard_exceptionsINS_29_AllocatorDestroyRangeReverseINS_9allocatorINS_10unique_ptrI6EntityNS_14default_deleteIS4_EEEEEENS_16reverse_iteratorIPS7_EEEEE10__completeB8ue170006Ev, symObjAddr: 0x8F44, symBinAddr: 0x100009EF8, symSize: 0x1C }
  - { offsetInCU: 0x1E43C, offset: 0x411DC, size: 0x8, addend: 0x0, symName: __ZNSt3__128__exception_guard_exceptionsINS_29_AllocatorDestroyRangeReverseINS_9allocatorINS_10unique_ptrI6EntityNS_14default_deleteIS4_EEEEEENS_16reverse_iteratorIPS7_EEEEED1B8ue170006Ev, symObjAddr: 0x8F60, symBinAddr: 0x100009F14, symSize: 0x2C }
  - { offsetInCU: 0x1E466, offset: 0x41206, size: 0x8, addend: 0x0, symName: __ZNSt3__128__exception_guard_exceptionsINS_29_AllocatorDestroyRangeReverseINS_9allocatorINS_10unique_ptrI6EntityNS_14default_deleteIS4_EEEEEENS_16reverse_iteratorIPS7_EEEEEC1B8ue170006ESC_, symObjAddr: 0x8F8C, symBinAddr: 0x100009F40, symSize: 0x34 }
  - { offsetInCU: 0x1E49F, offset: 0x4123F, size: 0x8, addend: 0x0, symName: __ZNSt3__128__exception_guard_exceptionsINS_29_AllocatorDestroyRangeReverseINS_9allocatorINS_10unique_ptrI6EntityNS_14default_deleteIS4_EEEEEENS_16reverse_iteratorIPS7_EEEEEC2B8ue170006ESC_, symObjAddr: 0x8FC0, symBinAddr: 0x100009F74, symSize: 0x30 }
  - { offsetInCU: 0x1E4D8, offset: 0x41278, size: 0x8, addend: 0x0, symName: __ZNSt3__129_AllocatorDestroyRangeReverseINS_9allocatorINS_10unique_ptrI6EntityNS_14default_deleteIS3_EEEEEENS_16reverse_iteratorIPS6_EEEC2B8ue170006ERS7_RSA_SD_, symObjAddr: 0x8FF0, symBinAddr: 0x100009FA4, symSize: 0x38 }
  - { offsetInCU: 0x1E534, offset: 0x412D4, size: 0x8, addend: 0x0, symName: __ZNSt3__119__to_address_helperINS_16reverse_iteratorIPNS_10unique_ptrI6EntityNS_14default_deleteIS3_EEEEEEvE6__callB8ue170006ERKS8_, symObjAddr: 0x9028, symBinAddr: 0x100009FDC, symSize: 0x38 }
  - { offsetInCU: 0x1E557, offset: 0x412F7, size: 0x8, addend: 0x0, symName: __ZNKSt3__116reverse_iteratorIPNS_10unique_ptrI6EntityNS_14default_deleteIS2_EEEEEptB8ue170006Ev, symObjAddr: 0x9060, symBinAddr: 0x10000A014, symSize: 0x24 }
  - { offsetInCU: 0x1E57D, offset: 0x4131D, size: 0x8, addend: 0x0, symName: __ZNSt3__128__exception_guard_exceptionsINS_29_AllocatorDestroyRangeReverseINS_9allocatorINS_10unique_ptrI6EntityNS_14default_deleteIS4_EEEEEENS_16reverse_iteratorIPS7_EEEEED2B8ue170006Ev, symObjAddr: 0x9084, symBinAddr: 0x10000A038, symSize: 0x50 }
  - { offsetInCU: 0x1E5A7, offset: 0x41347, size: 0x8, addend: 0x0, symName: __ZNKSt3__129_AllocatorDestroyRangeReverseINS_9allocatorINS_10unique_ptrI6EntityNS_14default_deleteIS3_EEEEEENS_16reverse_iteratorIPS6_EEEclB8ue170006Ev, symObjAddr: 0x90D4, symBinAddr: 0x10000A088, symSize: 0xB4 }
  - { offsetInCU: 0x1E5CE, offset: 0x4136E, size: 0x8, addend: 0x0, symName: __ZNSt3__116reverse_iteratorINS0_IPNS_10unique_ptrI6EntityNS_14default_deleteIS2_EEEEEEEC1B8ue170006ES7_, symObjAddr: 0x91F8, symBinAddr: 0x10000A1AC, symSize: 0x3C }
  - { offsetInCU: 0x1E606, offset: 0x413A6, size: 0x8, addend: 0x0, symName: __ZNSt3__116reverse_iteratorINS0_IPNS_10unique_ptrI6EntityNS_14default_deleteIS2_EEEEEEEppB8ue170006Ev, symObjAddr: 0x92B8, symBinAddr: 0x10000A26C, symSize: 0x30 }
  - { offsetInCU: 0x1E62C, offset: 0x413CC, size: 0x8, addend: 0x0, symName: __ZNKSt3__116reverse_iteratorINS0_IPNS_10unique_ptrI6EntityNS_14default_deleteIS2_EEEEEEE4baseB8ue170006Ev, symObjAddr: 0x92E8, symBinAddr: 0x10000A29C, symSize: 0x24 }
  - { offsetInCU: 0x1E657, offset: 0x413F7, size: 0x8, addend: 0x0, symName: __ZNSt3__119__to_address_helperINS_16reverse_iteratorINS1_IPNS_10unique_ptrI6EntityNS_14default_deleteIS3_EEEEEEEEvE6__callB8ue170006ERKS9_, symObjAddr: 0x930C, symBinAddr: 0x10000A2C0, symSize: 0x38 }
  - { offsetInCU: 0x1E67A, offset: 0x4141A, size: 0x8, addend: 0x0, symName: __ZNKSt3__116reverse_iteratorINS0_IPNS_10unique_ptrI6EntityNS_14default_deleteIS2_EEEEEEEptB8ue170006Ev, symObjAddr: 0x9344, symBinAddr: 0x10000A2F8, symSize: 0x24 }
  - { offsetInCU: 0x1E6A0, offset: 0x41440, size: 0x8, addend: 0x0, symName: __ZNKSt3__116reverse_iteratorINS0_IPNS_10unique_ptrI6EntityNS_14default_deleteIS2_EEEEEEEdeB8ue170006Ev, symObjAddr: 0x9368, symBinAddr: 0x10000A31C, symSize: 0x34 }
  - { offsetInCU: 0x1E6D5, offset: 0x41475, size: 0x8, addend: 0x0, symName: __ZNSt3__116reverse_iteratorIPNS_10unique_ptrI6EntityNS_14default_deleteIS2_EEEEEmmB8ue170006Ev, symObjAddr: 0x939C, symBinAddr: 0x10000A350, symSize: 0x20 }
  - { offsetInCU: 0x1E6FB, offset: 0x4149B, size: 0x8, addend: 0x0, symName: __ZNSt3__116reverse_iteratorINS0_IPNS_10unique_ptrI6EntityNS_14default_deleteIS2_EEEEEEEC2B8ue170006ES7_, symObjAddr: 0x93BC, symBinAddr: 0x10000A370, symSize: 0x2C }
  - { offsetInCU: 0x1E733, offset: 0x414D3, size: 0x8, addend: 0x0, symName: __ZNSt3__116reverse_iteratorIPNS_10unique_ptrI6EntityNS_14default_deleteIS2_EEEEEC2B8ue170006ES6_, symObjAddr: 0x93E8, symBinAddr: 0x10000A39C, symSize: 0x28 }
  - { offsetInCU: 0x1E76B, offset: 0x4150B, size: 0x8, addend: 0x0, symName: __ZNSt3__114__split_bufferINS_10unique_ptrI6EntityNS_14default_deleteIS2_EEEERNS_9allocatorIS5_EEED2Ev, symObjAddr: 0x9410, symBinAddr: 0x10000A3C4, symSize: 0x8C }
  - { offsetInCU: 0x1E797, offset: 0x41537, size: 0x8, addend: 0x0, symName: __ZNSt3__114__split_bufferINS_10unique_ptrI6EntityNS_14default_deleteIS2_EEEERNS_9allocatorIS5_EEE5clearB8ue170006Ev, symObjAddr: 0x949C, symBinAddr: 0x10000A450, symSize: 0x28 }
  - { offsetInCU: 0x1E7BD, offset: 0x4155D, size: 0x8, addend: 0x0, symName: __ZNKSt3__114__split_bufferINS_10unique_ptrI6EntityNS_14default_deleteIS2_EEEERNS_9allocatorIS5_EEE8capacityB8ue170006Ev, symObjAddr: 0x94C4, symBinAddr: 0x10000A478, symSize: 0x40 }
  - { offsetInCU: 0x1E7E3, offset: 0x41583, size: 0x8, addend: 0x0, symName: __ZNSt3__114__split_bufferINS_10unique_ptrI6EntityNS_14default_deleteIS2_EEEERNS_9allocatorIS5_EEE17__destruct_at_endB8ue170006EPS5_, symObjAddr: 0x9504, symBinAddr: 0x10000A4B8, symSize: 0x2C }
  - { offsetInCU: 0x1E817, offset: 0x415B7, size: 0x8, addend: 0x0, symName: __ZNSt3__114__split_bufferINS_10unique_ptrI6EntityNS_14default_deleteIS2_EEEERNS_9allocatorIS5_EEE17__destruct_at_endB8ue170006EPS5_NS_17integral_constantIbLb0EEE, symObjAddr: 0x9530, symBinAddr: 0x10000A4E4, symSize: 0x80 }
  - { offsetInCU: 0x1E858, offset: 0x415F8, size: 0x8, addend: 0x0, symName: __ZNKSt3__114__split_bufferINS_10unique_ptrI6EntityNS_14default_deleteIS2_EEEERNS_9allocatorIS5_EEE9__end_capB8ue170006Ev, symObjAddr: 0x95B0, symBinAddr: 0x10000A564, symSize: 0x28 }
  - { offsetInCU: 0x1E87E, offset: 0x4161E, size: 0x8, addend: 0x0, symName: __ZNKSt3__117__compressed_pairIPNS_10unique_ptrI6EntityNS_14default_deleteIS2_EEEERNS_9allocatorIS5_EEE5firstB8ue170006Ev, symObjAddr: 0x95D8, symBinAddr: 0x10000A58C, symSize: 0x24 }
  - { offsetInCU: 0x1E8A4, offset: 0x41644, size: 0x8, addend: 0x0, symName: __ZNKSt3__16vectorINS_10unique_ptrI6EntityNS_14default_deleteIS2_EEEENS_9allocatorIS5_EEE11__make_iterB8ue170006EPKS5_, symObjAddr: 0x95FC, symBinAddr: 0x10000A5B0, symSize: 0x30 }
  - { offsetInCU: 0x1E8D9, offset: 0x41679, size: 0x8, addend: 0x0, symName: __ZNSt3__111__wrap_iterIPKNS_10unique_ptrI6EntityNS_14default_deleteIS2_EEEEEC1B8ue170006ES7_, symObjAddr: 0x962C, symBinAddr: 0x10000A5E0, symSize: 0x34 }
  - { offsetInCU: 0x1E911, offset: 0x416B1, size: 0x8, addend: 0x0, symName: __ZNSt3__111__wrap_iterIPKNS_10unique_ptrI6EntityNS_14default_deleteIS2_EEEEEC2B8ue170006ES7_, symObjAddr: 0x9660, symBinAddr: 0x10000A614, symSize: 0x20 }
  - { offsetInCU: 0x1E949, offset: 0x416E9, size: 0x8, addend: 0x0, symName: __ZN2sf4RectIiEC2Eiiii, symObjAddr: 0x9680, symBinAddr: 0x10000A634, symSize: 0x44 }
  - { offsetInCU: 0x1E9AD, offset: 0x4174D, size: 0x8, addend: 0x0, symName: __ZNSt3__16vectorIN2sf14RectangleShapeENS_9allocatorIS2_EEE9__end_capB8ue170006Ev, symObjAddr: 0x96C4, symBinAddr: 0x10000A678, symSize: 0x28 }
  - { offsetInCU: 0x1E9D3, offset: 0x41773, size: 0x8, addend: 0x0, symName: __ZNSt3__16vectorIN2sf14RectangleShapeENS_9allocatorIS2_EEE22__construct_one_at_endB8ue170006IJRKS2_EEEvDpOT_, symObjAddr: 0x96EC, symBinAddr: 0x10000A6A0, symSize: 0x90 }
  - { offsetInCU: 0x1EA22, offset: 0x417C2, size: 0x8, addend: 0x0, symName: __ZNSt3__16vectorIN2sf14RectangleShapeENS_9allocatorIS2_EEE21__push_back_slow_pathIRKS2_EEvOT_, symObjAddr: 0x977C, symBinAddr: 0x10000A730, symSize: 0xD8 }
  - { offsetInCU: 0x1EA80, offset: 0x41820, size: 0x8, addend: 0x0, symName: __ZNSt3__117__compressed_pairIPN2sf14RectangleShapeENS_9allocatorIS2_EEE5firstB8ue170006Ev, symObjAddr: 0x9854, symBinAddr: 0x10000A808, symSize: 0x24 }
  - { offsetInCU: 0x1EAA6, offset: 0x41846, size: 0x8, addend: 0x0, symName: __ZNSt3__122__compressed_pair_elemIPN2sf14RectangleShapeELi0ELb0EE5__getB8ue170006Ev, symObjAddr: 0x9878, symBinAddr: 0x10000A82C, symSize: 0x14 }
  - { offsetInCU: 0x1EAE5, offset: 0x41885, size: 0x8, addend: 0x0, symName: __ZNSt3__16vectorIN2sf14RectangleShapeENS_9allocatorIS2_EEE21_ConstructTransactionC1B8ue170006ERS5_m, symObjAddr: 0x988C, symBinAddr: 0x10000A840, symSize: 0x3C }
  - { offsetInCU: 0x1EB2D, offset: 0x418CD, size: 0x8, addend: 0x0, symName: __ZNSt3__116allocator_traitsINS_9allocatorIN2sf14RectangleShapeEEEE9constructB8ue170006IS3_JRKS3_EvEEvRS4_PT_DpOT0_, symObjAddr: 0x98C8, symBinAddr: 0x10000A87C, symSize: 0x34 }
  - { offsetInCU: 0x1EB84, offset: 0x41924, size: 0x8, addend: 0x0, symName: __ZNSt3__16vectorIN2sf14RectangleShapeENS_9allocatorIS2_EEE21_ConstructTransactionD1B8ue170006Ev, symObjAddr: 0x98FC, symBinAddr: 0x10000A8B0, symSize: 0x2C }
  - { offsetInCU: 0x1EBAE, offset: 0x4194E, size: 0x8, addend: 0x0, symName: __ZNSt3__16vectorIN2sf14RectangleShapeENS_9allocatorIS2_EEE21_ConstructTransactionC2B8ue170006ERS5_m, symObjAddr: 0x9928, symBinAddr: 0x10000A8DC, symSize: 0x4C }
  - { offsetInCU: 0x1EBF6, offset: 0x41996, size: 0x8, addend: 0x0, symName: __ZNSt3__19allocatorIN2sf14RectangleShapeEE9constructB8ue170006IS2_JRKS2_EEEvPT_DpOT0_, symObjAddr: 0x9974, symBinAddr: 0x10000A928, symSize: 0x30 }
  - { offsetInCU: 0x1EC4C, offset: 0x419EC, size: 0x8, addend: 0x0, symName: __ZN2sf14RectangleShapeC1ERKS0_, symObjAddr: 0x99A4, symBinAddr: 0x10000A958, symSize: 0x34 }
  - { offsetInCU: 0x1EC81, offset: 0x41A21, size: 0x8, addend: 0x0, symName: __ZN2sf14RectangleShapeC2ERKS0_, symObjAddr: 0x99D8, symBinAddr: 0x10000A98C, symSize: 0x68 }
  - { offsetInCU: 0x1ECBB, offset: 0x41A5B, size: 0x8, addend: 0x0, symName: __ZN2sf5ShapeC2ERKS0_, symObjAddr: 0x9A40, symBinAddr: 0x10000A9F4, symSize: 0x11C }
  - { offsetInCU: 0x1ECF0, offset: 0x41A90, size: 0x8, addend: 0x0, symName: __ZN2sf8DrawableC2ERKS0_, symObjAddr: 0x9B5C, symBinAddr: 0x10000AB10, symSize: 0x28 }
  - { offsetInCU: 0x1ED2A, offset: 0x41ACA, size: 0x8, addend: 0x0, symName: __ZN2sf13TransformableC2ERKS0_, symObjAddr: 0x9B84, symBinAddr: 0x10000AB38, symSize: 0x50 }
  - { offsetInCU: 0x1ED64, offset: 0x41B04, size: 0x8, addend: 0x0, symName: __ZN2sf11VertexArrayC1ERKS0_, symObjAddr: 0x9BD4, symBinAddr: 0x10000AB88, symSize: 0x34 }
  - { offsetInCU: 0x1ED99, offset: 0x41B39, size: 0x8, addend: 0x0, symName: __ZN2sf8DrawableD1Ev, symObjAddr: 0x9C08, symBinAddr: 0x10000ABBC, symSize: 0x14 }
  - { offsetInCU: 0x1EDC3, offset: 0x41B63, size: 0x8, addend: 0x0, symName: __ZN2sf8DrawableD0Ev, symObjAddr: 0x9C1C, symBinAddr: 0x10000ABD0, symSize: 0xC }
  - { offsetInCU: 0x1EDED, offset: 0x41B8D, size: 0x8, addend: 0x0, symName: __ZN2sf11VertexArrayC2ERKS0_, symObjAddr: 0x9C28, symBinAddr: 0x10000ABDC, symSize: 0x94 }
  - { offsetInCU: 0x1EE22, offset: 0x41BC2, size: 0x8, addend: 0x0, symName: __ZNSt3__16vectorIN2sf6VertexENS_9allocatorIS2_EEEC1ERKS5_, symObjAddr: 0x9CBC, symBinAddr: 0x10000AC70, symSize: 0x34 }
  - { offsetInCU: 0x1EE5D, offset: 0x41BFD, size: 0x8, addend: 0x0, symName: __ZNSt3__16vectorIN2sf6VertexENS_9allocatorIS2_EEEC2ERKS5_, symObjAddr: 0x9CF0, symBinAddr: 0x10000ACA4, symSize: 0x94 }
  - { offsetInCU: 0x1EE98, offset: 0x41C38, size: 0x8, addend: 0x0, symName: __ZNSt3__116allocator_traitsINS_9allocatorIN2sf6VertexEEEE37select_on_container_copy_constructionB8ue170006IS4_vvEES4_RKS4_, symObjAddr: 0x9D84, symBinAddr: 0x10000AD38, symSize: 0x10 }
  - { offsetInCU: 0x1EECC, offset: 0x41C6C, size: 0x8, addend: 0x0, symName: __ZNSt3__117__compressed_pairIPN2sf6VertexENS_9allocatorIS2_EEEC1B8ue170006IDnS5_EEOT_OT0_, symObjAddr: 0x9D94, symBinAddr: 0x10000AD48, symSize: 0x3C }
  - { offsetInCU: 0x1EF24, offset: 0x41CC4, size: 0x8, addend: 0x0, symName: __ZNSt3__16vectorIN2sf6VertexENS_9allocatorIS2_EEE16__init_with_sizeB8ue170006IPS2_S7_EEvT_T0_m, symObjAddr: 0x9DD0, symBinAddr: 0x10000AD84, symSize: 0xB8 }
  - { offsetInCU: 0x1EF98, offset: 0x41D38, size: 0x8, addend: 0x0, symName: __ZNSt3__117__compressed_pairIPN2sf6VertexENS_9allocatorIS2_EEEC2B8ue170006IDnS5_EEOT_OT0_, symObjAddr: 0x9E88, symBinAddr: 0x10000AE3C, symSize: 0x44 }
  - { offsetInCU: 0x1EFF0, offset: 0x41D90, size: 0x8, addend: 0x0, symName: __ZNSt3__122__compressed_pair_elemINS_9allocatorIN2sf6VertexEEELi1ELb1EEC2B8ue170006IS4_vEEOT_, symObjAddr: 0x9ECC, symBinAddr: 0x10000AE80, symSize: 0x18 }
  - { offsetInCU: 0x1F032, offset: 0x41DD2, size: 0x8, addend: 0x0, symName: __ZNSt3__16vectorIN2sf6VertexENS_9allocatorIS2_EEE11__vallocateB8ue170006Em, symObjAddr: 0x9F24, symBinAddr: 0x10000AED8, symSize: 0xB4 }
  - { offsetInCU: 0x1F076, offset: 0x41E16, size: 0x8, addend: 0x0, symName: __ZNSt3__16vectorIN2sf6VertexENS_9allocatorIS2_EEE18__construct_at_endIPS2_S7_EEvT_T0_m, symObjAddr: 0x9FD8, symBinAddr: 0x10000AF8C, symSize: 0x8C }
  - { offsetInCU: 0x1F0EC, offset: 0x41E8C, size: 0x8, addend: 0x0, symName: __ZNSt3__128__exception_guard_exceptionsINS_6vectorIN2sf6VertexENS_9allocatorIS3_EEE16__destroy_vectorEE10__completeB8ue170006Ev, symObjAddr: 0xA064, symBinAddr: 0x10000B018, symSize: 0x1C }
  - { offsetInCU: 0x1F112, offset: 0x41EB2, size: 0x8, addend: 0x0, symName: __ZNSt3__128__exception_guard_exceptionsINS_6vectorIN2sf6VertexENS_9allocatorIS3_EEE16__destroy_vectorEED1B8ue170006Ev, symObjAddr: 0xA080, symBinAddr: 0x10000B034, symSize: 0x2C }
  - { offsetInCU: 0x1F13C, offset: 0x41EDC, size: 0x8, addend: 0x0, symName: __ZNSt3__128__exception_guard_exceptionsINS_6vectorIN2sf6VertexENS_9allocatorIS3_EEE16__destroy_vectorEEC1B8ue170006ES7_, symObjAddr: 0xA0AC, symBinAddr: 0x10000B060, symSize: 0x34 }
  - { offsetInCU: 0x1F174, offset: 0x41F14, size: 0x8, addend: 0x0, symName: __ZNSt3__128__exception_guard_exceptionsINS_6vectorIN2sf6VertexENS_9allocatorIS3_EEE16__destroy_vectorEEC2B8ue170006ES7_, symObjAddr: 0xA0E0, symBinAddr: 0x10000B094, symSize: 0x24 }
  - { offsetInCU: 0x1F1CA, offset: 0x41F6A, size: 0x8, addend: 0x0, symName: __ZNSt3__14pairIPN2sf6VertexES3_EC1B8ue170006IS3_S3_LPv0EEEOT_OT0_, symObjAddr: 0xA2B4, symBinAddr: 0x10000B268, symSize: 0x3C }
  - { offsetInCU: 0x1F229, offset: 0x41FC9, size: 0x8, addend: 0x0, symName: __ZNSt3__14pairIPN2sf6VertexES3_EC2B8ue170006IS3_S3_LPv0EEEOT_OT0_, symObjAddr: 0xA2F0, symBinAddr: 0x10000B2A4, symSize: 0x34 }
  - { offsetInCU: 0x1F292, offset: 0x42032, size: 0x8, addend: 0x0, symName: __ZNKSt3__114__copy_trivialclB8ue170006IN2sf6VertexES3_Li0EEENS_4pairIPT_PT0_EES6_S6_S8_, symObjAddr: 0xA4A0, symBinAddr: 0x10000B454, symSize: 0x48 }
  - { offsetInCU: 0x1F2FB, offset: 0x4209B, size: 0x8, addend: 0x0, symName: __ZNSt3__14pairIPN2sf6VertexES3_EC1B8ue170006IRS3_S3_LPv0EEEOT_OT0_, symObjAddr: 0xA63C, symBinAddr: 0x10000B5F0, symSize: 0x3C }
  - { offsetInCU: 0x1F35A, offset: 0x420FA, size: 0x8, addend: 0x0, symName: __ZNSt3__14pairIPN2sf6VertexES3_EC2B8ue170006IRS3_S3_LPv0EEEOT_OT0_, symObjAddr: 0xA678, symBinAddr: 0x10000B62C, symSize: 0x34 }
  - { offsetInCU: 0x1F3B9, offset: 0x42159, size: 0x8, addend: 0x0, symName: __ZNSt3__118__unwrap_iter_implIPN2sf6VertexELb1EE8__unwrapB8ue170006ES3_, symObjAddr: 0xA6AC, symBinAddr: 0x10000B660, symSize: 0x24 }
  - { offsetInCU: 0x1F3DC, offset: 0x4217C, size: 0x8, addend: 0x0, symName: __ZNSt3__118__unwrap_iter_implIPN2sf6VertexELb1EE8__rewrapB8ue170006ES3_S3_, symObjAddr: 0xA6D0, symBinAddr: 0x10000B684, symSize: 0x58 }
  - { offsetInCU: 0x1F40D, offset: 0x421AD, size: 0x8, addend: 0x0, symName: __ZNSt3__128__exception_guard_exceptionsINS_6vectorIN2sf6VertexENS_9allocatorIS3_EEE16__destroy_vectorEED2B8ue170006Ev, symObjAddr: 0xA728, symBinAddr: 0x10000B6DC, symSize: 0x48 }
  - { offsetInCU: 0x1F437, offset: 0x421D7, size: 0x8, addend: 0x0, symName: __ZNSt3__16vectorIN2sf14RectangleShapeENS_9allocatorIS2_EEE21_ConstructTransactionD2B8ue170006Ev, symObjAddr: 0xA770, symBinAddr: 0x10000B724, symSize: 0x20 }
  - { offsetInCU: 0x1F461, offset: 0x42201, size: 0x8, addend: 0x0, symName: __ZNKSt3__16vectorIN2sf14RectangleShapeENS_9allocatorIS2_EEE11__recommendB8ue170006Em, symObjAddr: 0xA790, symBinAddr: 0x10000B744, symSize: 0xB4 }
  - { offsetInCU: 0x1F4B6, offset: 0x42256, size: 0x8, addend: 0x0, symName: __ZNSt3__114__split_bufferIN2sf14RectangleShapeERNS_9allocatorIS2_EEEC1EmmS5_, symObjAddr: 0xA844, symBinAddr: 0x10000B7F8, symSize: 0x44 }
  - { offsetInCU: 0x1F50C, offset: 0x422AC, size: 0x8, addend: 0x0, symName: __ZNSt3__114__split_bufferIN2sf14RectangleShapeERNS_9allocatorIS2_EEED1Ev, symObjAddr: 0xA998, symBinAddr: 0x10000B94C, symSize: 0x2C }
  - { offsetInCU: 0x1F538, offset: 0x422D8, size: 0x8, addend: 0x0, symName: __ZNKSt3__16vectorIN2sf14RectangleShapeENS_9allocatorIS2_EEE8max_sizeEv, symObjAddr: 0xA9C4, symBinAddr: 0x10000B978, symSize: 0x60 }
  - { offsetInCU: 0x1F560, offset: 0x42300, size: 0x8, addend: 0x0, symName: __ZNKSt3__16vectorIN2sf14RectangleShapeENS_9allocatorIS2_EEE20__throw_length_errorB8ue170006Ev, symObjAddr: 0xAA24, symBinAddr: 0x10000B9D8, symSize: 0x1C }
  - { offsetInCU: 0x1F590, offset: 0x42330, size: 0x8, addend: 0x0, symName: __ZNSt3__116allocator_traitsINS_9allocatorIN2sf14RectangleShapeEEEE8max_sizeB8ue170006IS4_vEEmRKS4_, symObjAddr: 0xAA40, symBinAddr: 0x10000B9F4, symSize: 0x24 }
  - { offsetInCU: 0x1F5BE, offset: 0x4235E, size: 0x8, addend: 0x0, symName: __ZNKSt3__16vectorIN2sf14RectangleShapeENS_9allocatorIS2_EEE7__allocB8ue170006Ev, symObjAddr: 0xAA64, symBinAddr: 0x10000BA18, symSize: 0x28 }
  - { offsetInCU: 0x1F5E4, offset: 0x42384, size: 0x8, addend: 0x0, symName: __ZNKSt3__19allocatorIN2sf14RectangleShapeEE8max_sizeB8ue170006Ev, symObjAddr: 0xAA8C, symBinAddr: 0x10000BA40, symSize: 0x20 }
  - { offsetInCU: 0x1F60A, offset: 0x423AA, size: 0x8, addend: 0x0, symName: __ZNKSt3__117__compressed_pairIPN2sf14RectangleShapeENS_9allocatorIS2_EEE6secondB8ue170006Ev, symObjAddr: 0xAAAC, symBinAddr: 0x10000BA60, symSize: 0x24 }
  - { offsetInCU: 0x1F630, offset: 0x423D0, size: 0x8, addend: 0x0, symName: __ZNKSt3__122__compressed_pair_elemINS_9allocatorIN2sf14RectangleShapeEEELi1ELb1EE5__getB8ue170006Ev, symObjAddr: 0xAAD0, symBinAddr: 0x10000BA84, symSize: 0x14 }
  - { offsetInCU: 0x1F656, offset: 0x423F6, size: 0x8, addend: 0x0, symName: __ZNSt3__114__split_bufferIN2sf14RectangleShapeERNS_9allocatorIS2_EEEC2EmmS5_, symObjAddr: 0xAAE4, symBinAddr: 0x10000BA98, symSize: 0xE0 }
  - { offsetInCU: 0x1F6C9, offset: 0x42469, size: 0x8, addend: 0x0, symName: __ZNSt3__117__compressed_pairIPN2sf14RectangleShapeERNS_9allocatorIS2_EEEC1B8ue170006IDnS6_EEOT_OT0_, symObjAddr: 0xABC4, symBinAddr: 0x10000BB78, symSize: 0x3C }
  - { offsetInCU: 0x1F721, offset: 0x424C1, size: 0x8, addend: 0x0, symName: __ZNSt3__114__split_bufferIN2sf14RectangleShapeERNS_9allocatorIS2_EEE7__allocB8ue170006Ev, symObjAddr: 0xAC40, symBinAddr: 0x10000BBF4, symSize: 0x28 }
  - { offsetInCU: 0x1F747, offset: 0x424E7, size: 0x8, addend: 0x0, symName: __ZNSt3__114__split_bufferIN2sf14RectangleShapeERNS_9allocatorIS2_EEE9__end_capB8ue170006Ev, symObjAddr: 0xAC68, symBinAddr: 0x10000BC1C, symSize: 0x28 }
  - { offsetInCU: 0x1F76D, offset: 0x4250D, size: 0x8, addend: 0x0, symName: __ZNSt3__117__compressed_pairIPN2sf14RectangleShapeERNS_9allocatorIS2_EEEC2B8ue170006IDnS6_EEOT_OT0_, symObjAddr: 0xAC90, symBinAddr: 0x10000BC44, symSize: 0x48 }
  - { offsetInCU: 0x1F7C5, offset: 0x42565, size: 0x8, addend: 0x0, symName: __ZNSt3__122__compressed_pair_elemIRNS_9allocatorIN2sf14RectangleShapeEEELi1ELb0EEC2B8ue170006IS5_vEEOT_, symObjAddr: 0xACD8, symBinAddr: 0x10000BC8C, symSize: 0x20 }
  - { offsetInCU: 0x1F807, offset: 0x425A7, size: 0x8, addend: 0x0, symName: __ZNSt3__19allocatorIN2sf14RectangleShapeEE8allocateB8ue170006Em, symObjAddr: 0xACF8, symBinAddr: 0x10000BCAC, symSize: 0x5C }
  - { offsetInCU: 0x1F83B, offset: 0x425DB, size: 0x8, addend: 0x0, symName: __ZNSt3__117__compressed_pairIPN2sf14RectangleShapeERNS_9allocatorIS2_EEE6secondB8ue170006Ev, symObjAddr: 0xAD54, symBinAddr: 0x10000BD08, symSize: 0x28 }
  - { offsetInCU: 0x1F861, offset: 0x42601, size: 0x8, addend: 0x0, symName: __ZNSt3__122__compressed_pair_elemIRNS_9allocatorIN2sf14RectangleShapeEEELi1ELb0EE5__getB8ue170006Ev, symObjAddr: 0xAD7C, symBinAddr: 0x10000BD30, symSize: 0x18 }
  - { offsetInCU: 0x1F887, offset: 0x42627, size: 0x8, addend: 0x0, symName: __ZNSt3__117__compressed_pairIPN2sf14RectangleShapeERNS_9allocatorIS2_EEE5firstB8ue170006Ev, symObjAddr: 0xAD94, symBinAddr: 0x10000BD48, symSize: 0x24 }
  - { offsetInCU: 0x1F8AD, offset: 0x4264D, size: 0x8, addend: 0x0, symName: __ZNSt3__116reverse_iteratorIPN2sf14RectangleShapeEEC1B8ue170006ES3_, symObjAddr: 0xAEE4, symBinAddr: 0x10000BE98, symSize: 0x34 }
  - { offsetInCU: 0x1F8E5, offset: 0x42685, size: 0x8, addend: 0x0, symName: __ZNKSt3__116reverse_iteratorIPN2sf14RectangleShapeEE4baseB8ue170006Ev, symObjAddr: 0xAF18, symBinAddr: 0x10000BECC, symSize: 0x18 }
  - { offsetInCU: 0x1F90B, offset: 0x426AB, size: 0x8, addend: 0x0, symName: __ZNKSt3__16vectorIN2sf14RectangleShapeENS_9allocatorIS2_EEE14__annotate_newB8ue170006Em, symObjAddr: 0xAF6C, symBinAddr: 0x10000BF20, symSize: 0xC8 }
  - { offsetInCU: 0x1F940, offset: 0x426E0, size: 0x8, addend: 0x0, symName: __ZNSt3__129_AllocatorDestroyRangeReverseINS_9allocatorIN2sf14RectangleShapeEEENS_16reverse_iteratorIPS3_EEEC1B8ue170006ERS4_RS7_SA_, symObjAddr: 0xB080, symBinAddr: 0x10000C034, symSize: 0x44 }
  - { offsetInCU: 0x1F997, offset: 0x42737, size: 0x8, addend: 0x0, symName: __ZNKSt3__116reverse_iteratorIPN2sf14RectangleShapeEEdeB8ue170006Ev, symObjAddr: 0xB130, symBinAddr: 0x10000C0E4, symSize: 0x28 }
  - { offsetInCU: 0x1F9CC, offset: 0x4276C, size: 0x8, addend: 0x0, symName: __ZNSt3__116reverse_iteratorIPN2sf14RectangleShapeEEppB8ue170006Ev, symObjAddr: 0xB158, symBinAddr: 0x10000C10C, symSize: 0x20 }
  - { offsetInCU: 0x1F9F2, offset: 0x42792, size: 0x8, addend: 0x0, symName: __ZNSt3__128__exception_guard_exceptionsINS_29_AllocatorDestroyRangeReverseINS_9allocatorIN2sf14RectangleShapeEEENS_16reverse_iteratorIPS4_EEEEE10__completeB8ue170006Ev, symObjAddr: 0xB178, symBinAddr: 0x10000C12C, symSize: 0x1C }
  - { offsetInCU: 0x1FA18, offset: 0x427B8, size: 0x8, addend: 0x0, symName: __ZNSt3__128__exception_guard_exceptionsINS_29_AllocatorDestroyRangeReverseINS_9allocatorIN2sf14RectangleShapeEEENS_16reverse_iteratorIPS4_EEEEED1B8ue170006Ev, symObjAddr: 0xB194, symBinAddr: 0x10000C148, symSize: 0x2C }
  - { offsetInCU: 0x1FA42, offset: 0x427E2, size: 0x8, addend: 0x0, symName: __ZNSt3__128__exception_guard_exceptionsINS_29_AllocatorDestroyRangeReverseINS_9allocatorIN2sf14RectangleShapeEEENS_16reverse_iteratorIPS4_EEEEEC1B8ue170006ES9_, symObjAddr: 0xB1C0, symBinAddr: 0x10000C174, symSize: 0x34 }
  - { offsetInCU: 0x1FA7B, offset: 0x4281B, size: 0x8, addend: 0x0, symName: __ZNSt3__128__exception_guard_exceptionsINS_29_AllocatorDestroyRangeReverseINS_9allocatorIN2sf14RectangleShapeEEENS_16reverse_iteratorIPS4_EEEEEC2B8ue170006ES9_, symObjAddr: 0xB1F4, symBinAddr: 0x10000C1A8, symSize: 0x30 }
  - { offsetInCU: 0x1FAB4, offset: 0x42854, size: 0x8, addend: 0x0, symName: __ZNSt3__129_AllocatorDestroyRangeReverseINS_9allocatorIN2sf14RectangleShapeEEENS_16reverse_iteratorIPS3_EEEC2B8ue170006ERS4_RS7_SA_, symObjAddr: 0xB224, symBinAddr: 0x10000C1D8, symSize: 0x38 }
  - { offsetInCU: 0x1FB10, offset: 0x428B0, size: 0x8, addend: 0x0, symName: __ZNSt3__119__to_address_helperINS_16reverse_iteratorIPN2sf14RectangleShapeEEEvE6__callB8ue170006ERKS5_, symObjAddr: 0xB25C, symBinAddr: 0x10000C210, symSize: 0x38 }
  - { offsetInCU: 0x1FB33, offset: 0x428D3, size: 0x8, addend: 0x0, symName: __ZNKSt3__116reverse_iteratorIPN2sf14RectangleShapeEEptB8ue170006Ev, symObjAddr: 0xB294, symBinAddr: 0x10000C248, symSize: 0x24 }
  - { offsetInCU: 0x1FB59, offset: 0x428F9, size: 0x8, addend: 0x0, symName: __ZNSt3__128__exception_guard_exceptionsINS_29_AllocatorDestroyRangeReverseINS_9allocatorIN2sf14RectangleShapeEEENS_16reverse_iteratorIPS4_EEEEED2B8ue170006Ev, symObjAddr: 0xB2B8, symBinAddr: 0x10000C26C, symSize: 0x50 }
  - { offsetInCU: 0x1FB83, offset: 0x42923, size: 0x8, addend: 0x0, symName: __ZNKSt3__129_AllocatorDestroyRangeReverseINS_9allocatorIN2sf14RectangleShapeEEENS_16reverse_iteratorIPS3_EEEclB8ue170006Ev, symObjAddr: 0xB308, symBinAddr: 0x10000C2BC, symSize: 0xB4 }
  - { offsetInCU: 0x1FBAA, offset: 0x4294A, size: 0x8, addend: 0x0, symName: __ZNSt3__116reverse_iteratorINS0_IPN2sf14RectangleShapeEEEEC1B8ue170006ES4_, symObjAddr: 0xB42C, symBinAddr: 0x10000C3E0, symSize: 0x3C }
  - { offsetInCU: 0x1FBE2, offset: 0x42982, size: 0x8, addend: 0x0, symName: __ZNSt3__116reverse_iteratorINS0_IPN2sf14RectangleShapeEEEEppB8ue170006Ev, symObjAddr: 0xB4EC, symBinAddr: 0x10000C4A0, symSize: 0x30 }
  - { offsetInCU: 0x1FC08, offset: 0x429A8, size: 0x8, addend: 0x0, symName: __ZNKSt3__116reverse_iteratorINS0_IPN2sf14RectangleShapeEEEE4baseB8ue170006Ev, symObjAddr: 0xB51C, symBinAddr: 0x10000C4D0, symSize: 0x24 }
  - { offsetInCU: 0x1FC33, offset: 0x429D3, size: 0x8, addend: 0x0, symName: __ZNSt3__119__to_address_helperINS_16reverse_iteratorINS1_IPN2sf14RectangleShapeEEEEEvE6__callB8ue170006ERKS6_, symObjAddr: 0xB540, symBinAddr: 0x10000C4F4, symSize: 0x38 }
  - { offsetInCU: 0x1FC56, offset: 0x429F6, size: 0x8, addend: 0x0, symName: __ZNKSt3__116reverse_iteratorINS0_IPN2sf14RectangleShapeEEEEptB8ue170006Ev, symObjAddr: 0xB578, symBinAddr: 0x10000C52C, symSize: 0x24 }
  - { offsetInCU: 0x1FC7C, offset: 0x42A1C, size: 0x8, addend: 0x0, symName: __ZNKSt3__116reverse_iteratorINS0_IPN2sf14RectangleShapeEEEEdeB8ue170006Ev, symObjAddr: 0xB59C, symBinAddr: 0x10000C550, symSize: 0x34 }
  - { offsetInCU: 0x1FCB1, offset: 0x42A51, size: 0x8, addend: 0x0, symName: __ZNSt3__116reverse_iteratorIPN2sf14RectangleShapeEEmmB8ue170006Ev, symObjAddr: 0xB5D0, symBinAddr: 0x10000C584, symSize: 0x20 }
  - { offsetInCU: 0x1FCD7, offset: 0x42A77, size: 0x8, addend: 0x0, symName: __ZNSt3__116reverse_iteratorINS0_IPN2sf14RectangleShapeEEEEC2B8ue170006ES4_, symObjAddr: 0xB5F0, symBinAddr: 0x10000C5A4, symSize: 0x2C }
  - { offsetInCU: 0x1FD0F, offset: 0x42AAF, size: 0x8, addend: 0x0, symName: __ZNSt3__116reverse_iteratorIPN2sf14RectangleShapeEEC2B8ue170006ES3_, symObjAddr: 0xB61C, symBinAddr: 0x10000C5D0, symSize: 0x28 }
  - { offsetInCU: 0x1FD47, offset: 0x42AE7, size: 0x8, addend: 0x0, symName: __ZNSt3__114__split_bufferIN2sf14RectangleShapeERNS_9allocatorIS2_EEED2Ev, symObjAddr: 0xB644, symBinAddr: 0x10000C5F8, symSize: 0x8C }
  - { offsetInCU: 0x1FD73, offset: 0x42B13, size: 0x8, addend: 0x0, symName: __ZNSt3__114__split_bufferIN2sf14RectangleShapeERNS_9allocatorIS2_EEE5clearB8ue170006Ev, symObjAddr: 0xB6D0, symBinAddr: 0x10000C684, symSize: 0x28 }
  - { offsetInCU: 0x1FD99, offset: 0x42B39, size: 0x8, addend: 0x0, symName: __ZNKSt3__114__split_bufferIN2sf14RectangleShapeERNS_9allocatorIS2_EEE8capacityB8ue170006Ev, symObjAddr: 0xB6F8, symBinAddr: 0x10000C6AC, symSize: 0x40 }
  - { offsetInCU: 0x1FDBF, offset: 0x42B5F, size: 0x8, addend: 0x0, symName: __ZNSt3__114__split_bufferIN2sf14RectangleShapeERNS_9allocatorIS2_EEE17__destruct_at_endB8ue170006EPS2_, symObjAddr: 0xB738, symBinAddr: 0x10000C6EC, symSize: 0x2C }
  - { offsetInCU: 0x1FDF3, offset: 0x42B93, size: 0x8, addend: 0x0, symName: __ZNSt3__114__split_bufferIN2sf14RectangleShapeERNS_9allocatorIS2_EEE17__destruct_at_endB8ue170006EPS2_NS_17integral_constantIbLb0EEE, symObjAddr: 0xB764, symBinAddr: 0x10000C718, symSize: 0x80 }
  - { offsetInCU: 0x1FE34, offset: 0x42BD4, size: 0x8, addend: 0x0, symName: __ZNKSt3__114__split_bufferIN2sf14RectangleShapeERNS_9allocatorIS2_EEE9__end_capB8ue170006Ev, symObjAddr: 0xB7E4, symBinAddr: 0x10000C798, symSize: 0x28 }
  - { offsetInCU: 0x1FE5A, offset: 0x42BFA, size: 0x8, addend: 0x0, symName: __ZNKSt3__117__compressed_pairIPN2sf14RectangleShapeERNS_9allocatorIS2_EEE5firstB8ue170006Ev, symObjAddr: 0xB80C, symBinAddr: 0x10000C7C0, symSize: 0x24 }
  - { offsetInCU: 0x1FE80, offset: 0x42C20, size: 0x8, addend: 0x0, symName: __ZNKSt3__16vectorIN2sf14RectangleShapeENS_9allocatorIS2_EEE17__annotate_shrinkB8ue170006Em, symObjAddr: 0xB830, symBinAddr: 0x10000C7E4, symSize: 0xD0 }
  - { offsetInCU: 0x1FEB5, offset: 0x42C55, size: 0x8, addend: 0x0, symName: __ZNKSt3__16vectorI16SpriteDefinitionNS_9allocatorIS1_EEE11__make_iterB8ue170006EPKS1_, symObjAddr: 0xB900, symBinAddr: 0x10000C8B4, symSize: 0x30 }
  - { offsetInCU: 0x1FEEA, offset: 0x42C8A, size: 0x8, addend: 0x0, symName: __ZNSt3__111__wrap_iterIPK16SpriteDefinitionEC1B8ue170006ES3_, symObjAddr: 0xB930, symBinAddr: 0x10000C8E4, symSize: 0x34 }
  - { offsetInCU: 0x1FF22, offset: 0x42CC2, size: 0x8, addend: 0x0, symName: __ZNSt3__111__wrap_iterIPK16SpriteDefinitionEC2B8ue170006ES3_, symObjAddr: 0xB964, symBinAddr: 0x10000C918, symSize: 0x20 }
  - { offsetInCU: 0x1FF5A, offset: 0x42CFA, size: 0x8, addend: 0x0, symName: __ZN2sf7Vector2IfEC2IjEERKNS0_IT_EE, symObjAddr: 0xB984, symBinAddr: 0x10000C938, symSize: 0x38 }
  - { offsetInCU: 0x1FF9D, offset: 0x42D3D, size: 0x8, addend: 0x0, symName: __ZNKSt3__16__lessIvvEclB8ue170006IiiEEbRKT_RKT0_, symObjAddr: 0xBA68, symBinAddr: 0x10000CA1C, symSize: 0x34 }
  - { offsetInCU: 0x1FFF1, offset: 0x42D91, size: 0x8, addend: 0x0, symName: __ZN2sf4RectIfEC2ERKNS_7Vector2IfEES5_, symObjAddr: 0xBB70, symBinAddr: 0x10000CB24, symSize: 0x4C }
  - { offsetInCU: 0x20039, offset: 0x42DD9, size: 0x8, addend: 0x0, symName: __ZN2sf7Vector2IfEC2IiEERKNS0_IT_EE, symObjAddr: 0xBBBC, symBinAddr: 0x10000CB70, symSize: 0x38 }
  - { offsetInCU: 0x5C, offset: 0x430C5, size: 0x8, addend: 0x0, symName: __ZNSt3__119piecewise_constructE, symObjAddr: 0xA3BF, symBinAddr: 0x1000172BF, symSize: 0x0 }
  - { offsetInCU: 0x4E82, offset: 0x47EEB, size: 0x8, addend: 0x0, symName: __ZNSt3__14__fs10filesystemdvB8ue170006ERKNS1_4pathES4_, symObjAddr: 0xAB8, symBinAddr: 0x10000D568, symSize: 0xA8 }
  - { offsetInCU: 0x4ECF, offset: 0x47F38, size: 0x8, addend: 0x0, symName: __ZNSt3__14__fs10filesystemlsB8ue170006IcNS_11char_traitsIcEEEENS_9enable_ifIXaasr7is_sameIT_cEE5valuesr7is_sameIT0_S4_EE5valueERNS_13basic_ostreamIS6_S7_EEE4typeESA_RKNS1_4pathE, symObjAddr: 0xC50, symBinAddr: 0x10000D6D4, symSize: 0x54 }
  - { offsetInCU: 0xF259, offset: 0x522C2, size: 0x8, addend: 0x0, symName: __ZNSt3__17advanceB8ue170006INS_21__tree_const_iteratorINS_12__value_typeINS_12basic_stringIcNS_11char_traitsIcEENS_9allocatorIcEEEES8_EEPNS_11__tree_nodeIS9_PvEElEEllvEEvRT_T0_, symObjAddr: 0x88BC, symBinAddr: 0x100013788, symSize: 0x38 }
  - { offsetInCU: 0x102B3, offset: 0x5331C, size: 0x8, addend: 0x0, symName: __ZNSt3__1lsB8ue170006IcNS_11char_traitsIcEENS_9allocatorIcEEEERNS_13basic_ostreamIT_T0_EES9_RKNS_12basic_stringIS6_S7_T1_EE, symObjAddr: 0x90C, symBinAddr: 0x10000D488, symSize: 0x4C }
  - { offsetInCU: 0x1030B, offset: 0x53374, size: 0x8, addend: 0x0, symName: __ZNSt3__1neB8ue170006ERKNS_20__map_const_iteratorINS_21__tree_const_iteratorINS_12__value_typeINS_12basic_stringIcNS_11char_traitsIcEENS_9allocatorIcEEEES8_EEPNS_11__tree_nodeIS9_PvEElEEEESH_, symObjAddr: 0x1924, symBinAddr: 0x10000E278, symSize: 0x30 }
  - { offsetInCU: 0x10348, offset: 0x533B1, size: 0x8, addend: 0x0, symName: __ZNSt3__1plB8ue170006IcNS_11char_traitsIcEENS_9allocatorIcEEEENS_12basic_stringIT_T0_T1_EEOS9_PKS6_, symObjAddr: 0x19B8, symBinAddr: 0x10000E30C, symSize: 0x40 }
  - { offsetInCU: 0x103A0, offset: 0x53409, size: 0x8, addend: 0x0, symName: __ZNSt3__1plB8ue170006IcNS_11char_traitsIcEENS_9allocatorIcEEEENS_12basic_stringIT_T0_T1_EEPKS6_OS9_, symObjAddr: 0x1AC0, symBinAddr: 0x10000E414, symSize: 0x44 }
  - { offsetInCU: 0x103F8, offset: 0x53461, size: 0x8, addend: 0x0, symName: __ZNSt3__112__to_addressB8ue170006IKcEEPT_S3_, symObjAddr: 0x1F0C, symBinAddr: 0x10000E7E4, symSize: 0x14 }
  - { offsetInCU: 0x10460, offset: 0x534C9, size: 0x8, addend: 0x0, symName: __ZNSt3__18distanceB8ue170006IPKcEENS_15iterator_traitsIT_E15difference_typeES4_S4_, symObjAddr: 0x4524, symBinAddr: 0x10000F74C, symSize: 0x2C }
  - { offsetInCU: 0x104A4, offset: 0x5350D, size: 0x8, addend: 0x0, symName: __ZNSt3__110__distanceB8ue170006IPKcEENS_15iterator_traitsIT_E15difference_typeES4_S4_NS_26random_access_iterator_tagE, symObjAddr: 0x46C8, symBinAddr: 0x10000F8F0, symSize: 0x20 }
  - { offsetInCU: 0x104F2, offset: 0x5355B, size: 0x8, addend: 0x0, symName: __ZNSt3__121__is_pointer_in_rangeB8ue170006IccLi0EEEbPKT_S3_PKT0_, symObjAddr: 0x46E8, symBinAddr: 0x10000F910, symSize: 0x68 }
  - { offsetInCU: 0x105CC, offset: 0x53635, size: 0x8, addend: 0x0, symName: __ZNSt3__119__allocate_at_leastB8ue170006INS_9allocatorIcEEEENS_19__allocation_resultINS_16allocator_traitsIT_E7pointerEEERS5_m, symObjAddr: 0x4B20, symBinAddr: 0x10000FD48, symSize: 0x40 }
  - { offsetInCU: 0x107FD, offset: 0x53866, size: 0x8, addend: 0x0, symName: __ZNSt3__1lsB8ue170006INS_11char_traitsIcEELPv0EEERNS_13basic_ostreamIcT_EES7_RKNS_21__quoted_output_proxyIcS2_EE, symObjAddr: 0x4FB0, symBinAddr: 0x100010010, symSize: 0x48 }
  - { offsetInCU: 0x1084A, offset: 0x538B3, size: 0x8, addend: 0x0, symName: __ZNSt3__18__quotedB8ue170006IcNS_11char_traitsIcEENS_9allocatorIcEEEENS_21__quoted_output_proxyIT_T0_EERKNS_12basic_stringIS6_S7_T1_EES6_S6_, symObjAddr: 0x4FF8, symBinAddr: 0x100010058, symSize: 0x68 }
  - { offsetInCU: 0x108B1, offset: 0x5391A, size: 0x8, addend: 0x0, symName: __ZNSt3__115__quoted_outputB8ue170006IcNS_11char_traitsIcEEEERNS_13basic_ostreamIT_T0_EES7_PKS4_S9_S4_S4_, symObjAddr: 0x5060, symBinAddr: 0x1000100C0, symSize: 0x148 }
  - { offsetInCU: 0x109AF, offset: 0x53A18, size: 0x8, addend: 0x0, symName: __ZNSt3__119__allocate_at_leastB8ue170006INS_9allocatorI16SpriteDefinitionEEEENS_19__allocation_resultINS_16allocator_traitsIT_E7pointerEEERS6_m, symObjAddr: 0x5BD0, symBinAddr: 0x100010A9C, symSize: 0x40 }
  - { offsetInCU: 0x109F3, offset: 0x53A5C, size: 0x8, addend: 0x0, symName: __ZNSt3__142__uninitialized_allocator_move_if_noexceptB8ue170006INS_9allocatorI16SpriteDefinitionEENS_16reverse_iteratorIPS2_EES6_S6_EET2_RT_T0_T1_S7_, symObjAddr: 0x5D88, symBinAddr: 0x100010C54, symSize: 0x12C }
  - { offsetInCU: 0x10A93, offset: 0x53AFC, size: 0x8, addend: 0x0, symName: __ZNSt3__14swapB8ue170006IP16SpriteDefinitionEENS_9enable_ifIXaasr21is_move_constructibleIT_EE5valuesr18is_move_assignableIS4_EE5valueEvE4typeERS4_S7_, symObjAddr: 0x5F00, symBinAddr: 0x100010DCC, symSize: 0x3C }
  - { offsetInCU: 0x10AE5, offset: 0x53B4E, size: 0x8, addend: 0x0, symName: __ZNSt3__122__make_exception_guardB8ue170006INS_29_AllocatorDestroyRangeReverseINS_9allocatorI16SpriteDefinitionEENS_16reverse_iteratorIPS3_EEEEEENS_28__exception_guard_exceptionsIT_EESA_, symObjAddr: 0x6004, symBinAddr: 0x100010ED0, symSize: 0x4C }
  - { offsetInCU: 0x10B1C, offset: 0x53B85, size: 0x8, addend: 0x0, symName: __ZNSt3__1neB8ue170006IP16SpriteDefinitionS2_EEbRKNS_16reverse_iteratorIT_EERKNS3_IT0_EE, symObjAddr: 0x6094, symBinAddr: 0x100010F60, symSize: 0x48 }
  - { offsetInCU: 0x10B69, offset: 0x53BD2, size: 0x8, addend: 0x0, symName: __ZNSt3__112__to_addressB8ue170006INS_16reverse_iteratorIP16SpriteDefinitionEEvEEu7__decayIDTclsr19__to_address_helperIT_EE6__callclsr3stdE7declvalIRKS5_EEEEES7_, symObjAddr: 0x6110, symBinAddr: 0x100010FDC, symSize: 0x24 }
  - { offsetInCU: 0x10BCA, offset: 0x53C33, size: 0x8, addend: 0x0, symName: __ZNSt3__119__allocator_destroyB8ue170006INS_9allocatorI16SpriteDefinitionEENS_16reverse_iteratorINS4_IPS2_EEEES7_EEvRT_T0_T1_, symObjAddr: 0x6464, symBinAddr: 0x100011330, symSize: 0x70 }
  - { offsetInCU: 0x10C2F, offset: 0x53C98, size: 0x8, addend: 0x0, symName: __ZNSt3__1neB8ue170006INS_16reverse_iteratorIP16SpriteDefinitionEES4_EEbRKNS1_IT_EERKNS1_IT0_EE, symObjAddr: 0x6510, symBinAddr: 0x1000113DC, symSize: 0x60 }
  - { offsetInCU: 0x10C7C, offset: 0x53CE5, size: 0x8, addend: 0x0, symName: __ZNSt3__112__to_addressB8ue170006INS_16reverse_iteratorINS1_IP16SpriteDefinitionEEEEvEEu7__decayIDTclsr19__to_address_helperIT_EE6__callclsr3stdE7declvalIRKS6_EEEEES8_, symObjAddr: 0x6570, symBinAddr: 0x10001143C, symSize: 0x24 }
  - { offsetInCU: 0x10CDD, offset: 0x53D46, size: 0x8, addend: 0x0, symName: __ZNSt3__122__make_exception_guardB8ue170006INS_6vectorI16SpriteDefinitionNS_9allocatorIS2_EEE16__destroy_vectorEEENS_28__exception_guard_exceptionsIT_EES8_, symObjAddr: 0x6ACC, symBinAddr: 0x100011998, symSize: 0x40 }
  - { offsetInCU: 0x10D13, offset: 0x53D7C, size: 0x8, addend: 0x0, symName: __ZNSt3__130__uninitialized_allocator_copyB8ue170006INS_9allocatorI16SpriteDefinitionEEPS2_S4_S4_EET2_RT_T0_T1_S5_, symObjAddr: 0x6CEC, symBinAddr: 0x100011BB8, symSize: 0x80 }
  - { offsetInCU: 0x10DB0, offset: 0x53E19, size: 0x8, addend: 0x0, symName: __ZNSt3__114__unwrap_rangeB8ue170006IP16SpriteDefinitionS2_EENS_4pairIT0_S4_EET_S6_, symObjAddr: 0x6D6C, symBinAddr: 0x100011C38, symSize: 0x60 }
  - { offsetInCU: 0x10DFD, offset: 0x53E66, size: 0x8, addend: 0x0, symName: __ZNSt3__135__uninitialized_allocator_copy_implB8ue170006INS_9allocatorI16SpriteDefinitionEEPS2_S4_S4_EET2_RT_T0_T1_S5_, symObjAddr: 0x6DCC, symBinAddr: 0x100011C98, symSize: 0xF4 }
  - { offsetInCU: 0x10E9B, offset: 0x53F04, size: 0x8, addend: 0x0, symName: __ZNSt3__113__unwrap_iterB8ue170006IP16SpriteDefinitionNS_18__unwrap_iter_implIS2_Lb1EEELi0EEEDTclsrT0_8__unwrapclsr3stdE7declvalIT_EEEES6_, symObjAddr: 0x6EC0, symBinAddr: 0x100011D8C, symSize: 0x24 }
  - { offsetInCU: 0x10EE1, offset: 0x53F4A, size: 0x8, addend: 0x0, symName: __ZNSt3__113__rewrap_iterB8ue170006IP16SpriteDefinitionS2_NS_18__unwrap_iter_implIS2_Lb1EEEEET_S5_T0_, symObjAddr: 0x6EE4, symBinAddr: 0x100011DB0, symSize: 0x3C }
  - { offsetInCU: 0x10F37, offset: 0x53FA0, size: 0x8, addend: 0x0, symName: __ZNSt3__19make_pairB8ue170006IP16SpriteDefinitionS2_EENS_4pairINS_18__unwrap_ref_decayIT_E4typeENS4_IT0_E4typeEEEOS5_OS8_, symObjAddr: 0x6F20, symBinAddr: 0x100011DEC, symSize: 0x38 }
  - { offsetInCU: 0x1105B, offset: 0x540C4, size: 0x8, addend: 0x0, symName: __ZNSt3__122__make_exception_guardB8ue170006INS_29_AllocatorDestroyRangeReverseINS_9allocatorI16SpriteDefinitionEEPS3_EEEENS_28__exception_guard_exceptionsIT_EES8_, symObjAddr: 0x6FC8, symBinAddr: 0x100011E94, symSize: 0x4C }
  - { offsetInCU: 0x11092, offset: 0x540FB, size: 0x8, addend: 0x0, symName: __ZNSt3__119__allocator_destroyB8ue170006INS_9allocatorI16SpriteDefinitionEENS_16reverse_iteratorIPS2_EES6_EEvRT_T0_T1_, symObjAddr: 0x7258, symBinAddr: 0x100012124, symSize: 0x70 }
  - { offsetInCU: 0x1116D, offset: 0x541D6, size: 0x8, addend: 0x0, symName: __ZNSt3__1eqB8ue170006ERKNS_21__tree_const_iteratorINS_12__value_typeINS_12basic_stringIcNS_11char_traitsIcEENS_9allocatorIcEEEES7_EEPNS_11__tree_nodeIS8_PvEElEESF_, symObjAddr: 0x7FD4, symBinAddr: 0x100012EA0, symSize: 0x30 }
  - { offsetInCU: 0x111AA, offset: 0x54213, size: 0x8, addend: 0x0, symName: __ZNSt3__14nextB8ue170006INS_21__tree_const_iteratorINS_12__value_typeINS_12basic_stringIcNS_11char_traitsIcEENS_9allocatorIcEEEES8_EEPNS_11__tree_nodeIS9_PvEElEEEENS_9enable_ifIXsr29__has_input_iterator_categoryIT_EE5valueESG_E4typeESG_NS_15iterator_traitsISG_E15difference_typeE, symObjAddr: 0x8344, symBinAddr: 0x100013210, symSize: 0x3C }
  - { offsetInCU: 0x111EE, offset: 0x54257, size: 0x8, addend: 0x0, symName: __ZNSt3__1ltB8ue170006IcNS_11char_traitsIcEENS_9allocatorIcEEEEbRKNS_12basic_stringIT_T0_T1_EESB_, symObjAddr: 0x849C, symBinAddr: 0x100013368, symSize: 0x38 }
  - { offsetInCU: 0x11246, offset: 0x542AF, size: 0x8, addend: 0x0, symName: __ZNSt3__17launderB8ue170006IKNS_4pairIKNS_12basic_stringIcNS_11char_traitsIcEENS_9allocatorIcEEEES7_EEEEPT_SC_, symObjAddr: 0x8738, symBinAddr: 0x100013604, symSize: 0x24 }
  - { offsetInCU: 0x1127D, offset: 0x542E6, size: 0x8, addend: 0x0, symName: __ZNSt3__19__launderB8ue170006IKNS_4pairIKNS_12basic_stringIcNS_11char_traitsIcEENS_9allocatorIcEEEES7_EEEEPT_SC_, symObjAddr: 0x875C, symBinAddr: 0x100013628, symSize: 0x14 }
  - { offsetInCU: 0x112B4, offset: 0x5431D, size: 0x8, addend: 0x0, symName: __ZNSt3__116__tree_prev_iterB8ue170006IPNS_16__tree_node_baseIPvEEPNS_15__tree_end_nodeIS4_EEEET_T0_, symObjAddr: 0x8770, symBinAddr: 0x10001363C, symSize: 0xA4 }
  - { offsetInCU: 0x11302, offset: 0x5436B, size: 0x8, addend: 0x0, symName: __ZNSt3__110__tree_maxB8ue170006IPNS_16__tree_node_baseIPvEEEET_S5_, symObjAddr: 0x8814, symBinAddr: 0x1000136E0, symSize: 0x40 }
  - { offsetInCU: 0x11337, offset: 0x543A0, size: 0x8, addend: 0x0, symName: __ZNSt3__120__tree_is_left_childB8ue170006IPNS_16__tree_node_baseIPvEEEEbT_, symObjAddr: 0x8854, symBinAddr: 0x100013720, symSize: 0x2C }
  - { offsetInCU: 0x1136C, offset: 0x543D5, size: 0x8, addend: 0x0, symName: __ZNSt3__121__convert_to_integralB8ue170006El, symObjAddr: 0x88F4, symBinAddr: 0x1000137C0, symSize: 0x14 }
  - { offsetInCU: 0x11398, offset: 0x54401, size: 0x8, addend: 0x0, symName: __ZNSt3__19__advanceB8ue170006INS_21__tree_const_iteratorINS_12__value_typeINS_12basic_stringIcNS_11char_traitsIcEENS_9allocatorIcEEEES8_EEPNS_11__tree_nodeIS9_PvEElEEEEvRT_NS_15iterator_traitsISF_E15difference_typeENS_26bidirectional_iterator_tagE, symObjAddr: 0x8908, symBinAddr: 0x1000137D4, symSize: 0xA4 }
  - { offsetInCU: 0x113E3, offset: 0x5444C, size: 0x8, addend: 0x0, symName: __ZNSt3__116__tree_next_iterB8ue170006IPNS_15__tree_end_nodeIPNS_16__tree_node_baseIPvEEEES5_EET_T0_, symObjAddr: 0x89E4, symBinAddr: 0x1000138B0, symSize: 0x80 }
  - { offsetInCU: 0x11422, offset: 0x5448B, size: 0x8, addend: 0x0, symName: __ZNSt3__110__tree_minB8ue170006IPNS_16__tree_node_baseIPvEEEET_S5_, symObjAddr: 0x8A64, symBinAddr: 0x100013930, symSize: 0x40 }
  - { offsetInCU: 0x11475, offset: 0x544DE, size: 0x8, addend: 0x0, symName: __ZNSt3__127__tree_balance_after_insertB8ue170006IPNS_16__tree_node_baseIPvEEEEvT_S5_, symObjAddr: 0x8F00, symBinAddr: 0x100013DCC, symSize: 0x27C }
  - { offsetInCU: 0x114F1, offset: 0x5455A, size: 0x8, addend: 0x0, symName: __ZNSt3__118__tree_left_rotateB8ue170006IPNS_16__tree_node_baseIPvEEEEvT_, symObjAddr: 0x91A4, symBinAddr: 0x100014070, symSize: 0xD8 }
  - { offsetInCU: 0x11533, offset: 0x5459C, size: 0x8, addend: 0x0, symName: __ZNSt3__119__tree_right_rotateB8ue170006IPNS_16__tree_node_baseIPvEEEEvT_, symObjAddr: 0x927C, symBinAddr: 0x100014148, symSize: 0xCC }
  - { offsetInCU: 0x115DF, offset: 0x54648, size: 0x8, addend: 0x0, symName: __ZNSt3__116forward_as_tupleB8ue170006IJRKNS_12basic_stringIcNS_11char_traitsIcEENS_9allocatorIcEEEEEEENS_5tupleIJDpOT_EEESC_, symObjAddr: 0x97E0, symBinAddr: 0x100014654, symSize: 0x2C }
  - { offsetInCU: 0x11618, offset: 0x54681, size: 0x8, addend: 0x0, symName: __ZNSt3__116forward_as_tupleB8ue170006IJEEENS_5tupleIJDpOT_EEES4_, symObjAddr: 0x980C, symBinAddr: 0x100014680, symSize: 0x4 }
  - { offsetInCU: 0x11648, offset: 0x546B1, size: 0x8, addend: 0x0, symName: __ZNSt3__13getB8ue170006ILm0EJRKNS_12basic_stringIcNS_11char_traitsIcEENS_9allocatorIcEEEEEEERNS_13tuple_elementIXT_ENS_5tupleIJDpT0_EEEE4typeERSD_, symObjAddr: 0x9AAC, symBinAddr: 0x100014920, symSize: 0x24 }
  - { offsetInCU: 0x116E2, offset: 0x5474B, size: 0x8, addend: 0x0, symName: __ZNSt3__1neB8ue170006ERKNS_21__tree_const_iteratorINS_12__value_typeINS_12basic_stringIcNS_11char_traitsIcEENS_9allocatorIcEEEES7_EEPNS_11__tree_nodeIS8_PvEElEESF_, symObjAddr: 0x9DA0, symBinAddr: 0x100014C14, symSize: 0x34 }
  - { offsetInCU: 0x14CB8, offset: 0x57D21, size: 0x8, addend: 0x0, symName: __ZNSt3__16vectorI16SpriteDefinitionNS_9allocatorIS1_EEE26__swap_out_circular_bufferERNS_14__split_bufferIS1_RS3_EE, symObjAddr: 0x5710, symBinAddr: 0x10001072C, symSize: 0x110 }
  - { offsetInCU: 0x16CB0, offset: 0x59D19, size: 0x8, addend: 0x0, symName: __ZN6EntityC2ERKNSt3__112basic_stringIcNS0_11char_traitsIcEENS0_9allocatorIcEEEE, symObjAddr: 0x0, symBinAddr: 0x10000CBA8, symSize: 0x838 }
  - { offsetInCU: 0x16DF9, offset: 0x59E62, size: 0x8, addend: 0x0, symName: __ZNSt3__112basic_stringIcNS_11char_traitsIcEENS_9allocatorIcEEEC1B8ue170006Ev, symObjAddr: 0x838, symBinAddr: 0x10000D3E0, symSize: 0x2C }
  - { offsetInCU: 0x16E23, offset: 0x59E8C, size: 0x8, addend: 0x0, symName: __ZNSt3__16vectorI16SpriteDefinitionNS_9allocatorIS1_EEEC1B8ue170006Ev, symObjAddr: 0x864, symBinAddr: 0x10000D40C, symSize: 0x2C }
  - { offsetInCU: 0x16E4D, offset: 0x59EB6, size: 0x8, addend: 0x0, symName: __ZNSt3__13mapINS_12basic_stringIcNS_11char_traitsIcEENS_9allocatorIcEEEES6_NS_4lessIS6_EENS4_INS_4pairIKS6_S6_EEEEEC1B8ue170006Ev, symObjAddr: 0x890, symBinAddr: 0x10000D438, symSize: 0x2C }
  - { offsetInCU: 0x16E77, offset: 0x59EE0, size: 0x8, addend: 0x0, symName: __ZNKSt3__112basic_stringIcNS_11char_traitsIcEENS_9allocatorIcEEE5c_strB8ue170006Ev, symObjAddr: 0x8E8, symBinAddr: 0x10000D464, symSize: 0x24 }
  - { offsetInCU: 0x16E9D, offset: 0x59F06, size: 0x8, addend: 0x0, symName: __ZN8tinyxml27XMLNode17FirstChildElementEPKc, symObjAddr: 0xA24, symBinAddr: 0x10000D4D4, symSize: 0x2C }
  - { offsetInCU: 0x16ED2, offset: 0x59F3B, size: 0x8, addend: 0x0, symName: __ZNSt3__112basic_stringIcNS_11char_traitsIcEENS_9allocatorIcEEEaSB8ue170006EPKc, symObjAddr: 0xA50, symBinAddr: 0x10000D500, symSize: 0x2C }
  - { offsetInCU: 0x16F07, offset: 0x59F70, size: 0x8, addend: 0x0, symName: __ZNSt3__14__fs10filesystem4pathC1B8ue170006INS_12basic_stringIcNS_11char_traitsIcEENS_9allocatorIcEEEEvEERKT_NS2_6formatE, symObjAddr: 0xA7C, symBinAddr: 0x10000D52C, symSize: 0x3C }
  - { offsetInCU: 0x16F56, offset: 0x59FBF, size: 0x8, addend: 0x0, symName: __ZNKSt3__14__fs10filesystem4path11parent_pathB8ue170006Ev, symObjAddr: 0xB60, symBinAddr: 0x10000D610, symSize: 0x60 }
  - { offsetInCU: 0x16F7C, offset: 0x59FE5, size: 0x8, addend: 0x0, symName: __ZNSt3__14__fs10filesystem4pathD1B8ue170006Ev, symObjAddr: 0xBC0, symBinAddr: 0x10000D670, symSize: 0x2C }
  - { offsetInCU: 0x16FA6, offset: 0x5A00F, size: 0x8, addend: 0x0, symName: __ZNKSt3__14__fs10filesystem4path6stringB8ue170006Ev, symObjAddr: 0xBEC, symBinAddr: 0x10000D69C, symSize: 0x38 }
  - { offsetInCU: 0x16FCC, offset: 0x5A035, size: 0x8, addend: 0x0, symName: __ZN6Entity16loadTextureAtlasERKNSt3__112basic_stringIcNS0_11char_traitsIcEENS0_9allocatorIcEEEEii, symObjAddr: 0xCA4, symBinAddr: 0x10000D728, symSize: 0x4E8 }
  - { offsetInCU: 0x17124, offset: 0x5A18D, size: 0x8, addend: 0x0, symName: __ZNKSt3__16vectorI16SpriteDefinitionNS_9allocatorIS1_EEE5emptyB8ue170006Ev, symObjAddr: 0x118C, symBinAddr: 0x10000DC10, symSize: 0x28 }
  - { offsetInCU: 0x1714F, offset: 0x5A1B8, size: 0x8, addend: 0x0, symName: __ZN16SpriteDefinitionC1Ev, symObjAddr: 0x11B4, symBinAddr: 0x10000DC38, symSize: 0x2C }
  - { offsetInCU: 0x1717B, offset: 0x5A1E4, size: 0x8, addend: 0x0, symName: __ZNSt3__16vectorI16SpriteDefinitionNS_9allocatorIS1_EEE9push_backB8ue170006ERKS1_, symObjAddr: 0x122C, symBinAddr: 0x10000DC64, symSize: 0x6C }
  - { offsetInCU: 0x171B2, offset: 0x5A21B, size: 0x8, addend: 0x0, symName: __ZN6Entity14loadCustomDataEPKN8tinyxml210XMLElementE, symObjAddr: 0x12C4, symBinAddr: 0x10000DCD0, symSize: 0x16C }
  - { offsetInCU: 0x17249, offset: 0x5A2B2, size: 0x8, addend: 0x0, symName: __ZN6EntityC1ERKNSt3__112basic_stringIcNS0_11char_traitsIcEENS0_9allocatorIcEEEE, symObjAddr: 0x14B4, symBinAddr: 0x10000DE3C, symSize: 0x34 }
  - { offsetInCU: 0x17283, offset: 0x5A2EC, size: 0x8, addend: 0x0, symName: __ZN6EntityC2ERKS_, symObjAddr: 0x14E8, symBinAddr: 0x10000DE70, symSize: 0x194 }
  - { offsetInCU: 0x172BD, offset: 0x5A326, size: 0x8, addend: 0x0, symName: __ZN2sf6SpriteC1ERKS0_, symObjAddr: 0x167C, symBinAddr: 0x10000E004, symSize: 0x34 }
  - { offsetInCU: 0x172F2, offset: 0x5A35B, size: 0x8, addend: 0x0, symName: __ZNSt3__16vectorI16SpriteDefinitionNS_9allocatorIS1_EEEC1ERKS4_, symObjAddr: 0x16B0, symBinAddr: 0x10000E038, symSize: 0x34 }
  - { offsetInCU: 0x1732D, offset: 0x5A396, size: 0x8, addend: 0x0, symName: __ZNSt3__13mapINS_12basic_stringIcNS_11char_traitsIcEENS_9allocatorIcEEEES6_NS_4lessIS6_EENS4_INS_4pairIKS6_S6_EEEEEC1B8ue170006ERKSD_, symObjAddr: 0x16E4, symBinAddr: 0x10000E06C, symSize: 0x34 }
  - { offsetInCU: 0x17366, offset: 0x5A3CF, size: 0x8, addend: 0x0, symName: __ZN6EntityC1ERKS_, symObjAddr: 0x1718, symBinAddr: 0x10000E0A0, symSize: 0x34 }
  - { offsetInCU: 0x173A5, offset: 0x5A40E, size: 0x8, addend: 0x0, symName: __ZNSt3__13mapINS_12basic_stringIcNS_11char_traitsIcEENS_9allocatorIcEEEES6_NS_4lessIS6_EENS4_INS_4pairIKS6_S6_EEEEEixERSA_, symObjAddr: 0x1780, symBinAddr: 0x10000E0D4, symSize: 0x80 }
  - { offsetInCU: 0x173DC, offset: 0x5A445, size: 0x8, addend: 0x0, symName: __ZN6Entity13setCustomDataERKNSt3__112basic_stringIcNS0_11char_traitsIcEENS0_9allocatorIcEEEES8_, symObjAddr: 0x1800, symBinAddr: 0x10000E154, symSize: 0x44 }
  - { offsetInCU: 0x17420, offset: 0x5A489, size: 0x8, addend: 0x0, symName: __ZNK6Entity13getCustomDataERKNSt3__112basic_stringIcNS0_11char_traitsIcEENS0_9allocatorIcEEEE, symObjAddr: 0x1844, symBinAddr: 0x10000E198, symSize: 0xA0 }
  - { offsetInCU: 0x17465, offset: 0x5A4CE, size: 0x8, addend: 0x0, symName: __ZNKSt3__13mapINS_12basic_stringIcNS_11char_traitsIcEENS_9allocatorIcEEEES6_NS_4lessIS6_EENS4_INS_4pairIKS6_S6_EEEEE4findB8ue170006ERSA_, symObjAddr: 0x18E4, symBinAddr: 0x10000E238, symSize: 0x40 }
  - { offsetInCU: 0x1749A, offset: 0x5A503, size: 0x8, addend: 0x0, symName: __ZNKSt3__13mapINS_12basic_stringIcNS_11char_traitsIcEENS_9allocatorIcEEEES6_NS_4lessIS6_EENS4_INS_4pairIKS6_S6_EEEEE3endB8ue170006Ev, symObjAddr: 0x1954, symBinAddr: 0x10000E2A8, symSize: 0x38 }
  - { offsetInCU: 0x174C0, offset: 0x5A529, size: 0x8, addend: 0x0, symName: __ZNKSt3__120__map_const_iteratorINS_21__tree_const_iteratorINS_12__value_typeINS_12basic_stringIcNS_11char_traitsIcEENS_9allocatorIcEEEES8_EEPNS_11__tree_nodeIS9_PvEElEEEptB8ue170006Ev, symObjAddr: 0x198C, symBinAddr: 0x10000E2E0, symSize: 0x2C }
  - { offsetInCU: 0x174E6, offset: 0x5A54F, size: 0x8, addend: 0x0, symName: __ZNKSt3__112basic_stringIcNS_11char_traitsIcEENS_9allocatorIcEEE6substrB8ue170006Emm, symObjAddr: 0x19F8, symBinAddr: 0x10000E34C, symSize: 0x68 }
  - { offsetInCU: 0x1752A, offset: 0x5A593, size: 0x8, addend: 0x0, symName: __ZNKSt3__112basic_stringIcNS_11char_traitsIcEENS_9allocatorIcEEE12find_last_ofB8ue170006Ecm, symObjAddr: 0x1A60, symBinAddr: 0x10000E3B4, symSize: 0x34 }
  - { offsetInCU: 0x17570, offset: 0x5A5D9, size: 0x8, addend: 0x0, symName: __ZN8tinyxml27XMLNode18NextSiblingElementEPKc, symObjAddr: 0x1A94, symBinAddr: 0x10000E3E8, symSize: 0x2C }
  - { offsetInCU: 0x175A5, offset: 0x5A60E, size: 0x8, addend: 0x0, symName: __ZNSt3__112basic_stringIcNS_11char_traitsIcEENS_9allocatorIcEEEaSB8ue170006EOS5_, symObjAddr: 0x1B04, symBinAddr: 0x10000E458, symSize: 0x34 }
  - { offsetInCU: 0x175DA, offset: 0x5A643, size: 0x8, addend: 0x0, symName: __ZNK6Entity4drawERN2sf12RenderWindowE, symObjAddr: 0x1B60, symBinAddr: 0x10000E48C, symSize: 0x38 }
  - { offsetInCU: 0x17610, offset: 0x5A679, size: 0x8, addend: 0x0, symName: __ZNK6Entity11getPositionEv, symObjAddr: 0x1B98, symBinAddr: 0x10000E4C4, symSize: 0x38 }
  - { offsetInCU: 0x17638, offset: 0x5A6A1, size: 0x8, addend: 0x0, symName: __ZN6Entity11setPositionEff, symObjAddr: 0x1BD0, symBinAddr: 0x10000E4FC, symSize: 0x38 }
  - { offsetInCU: 0x1767C, offset: 0x5A6E5, size: 0x8, addend: 0x0, symName: __ZNSt3__14__fs10filesystem4pathC1B8ue170006ERKS2_, symObjAddr: 0x1C08, symBinAddr: 0x10000E534, symSize: 0x34 }
  - { offsetInCU: 0x176B5, offset: 0x5A71E, size: 0x8, addend: 0x0, symName: __ZNSt3__14__fs10filesystem4pathdVB8ue170006ERKS2_, symObjAddr: 0x1C3C, symBinAddr: 0x10000E568, symSize: 0x94 }
  - { offsetInCU: 0x176EA, offset: 0x5A753, size: 0x8, addend: 0x0, symName: __ZNSt3__14__fs10filesystem4pathC2B8ue170006ERKS2_, symObjAddr: 0x1CD0, symBinAddr: 0x10000E5FC, symSize: 0x34 }
  - { offsetInCU: 0x17723, offset: 0x5A78C, size: 0x8, addend: 0x0, symName: __ZNKSt3__14__fs10filesystem4path11is_absoluteB8ue170006Ev, symObjAddr: 0x1D04, symBinAddr: 0x10000E630, symSize: 0x28 }
  - { offsetInCU: 0x17749, offset: 0x5A7B2, size: 0x8, addend: 0x0, symName: __ZNKSt3__14__fs10filesystem4path12has_filenameB8ue170006Ev, symObjAddr: 0x1D2C, symBinAddr: 0x10000E658, symSize: 0x40 }
  - { offsetInCU: 0x1776F, offset: 0x5A7D8, size: 0x8, addend: 0x0, symName: __ZNSt3__112basic_stringIcNS_11char_traitsIcEENS_9allocatorIcEEEpLB8ue170006Ec, symObjAddr: 0x1D6C, symBinAddr: 0x10000E698, symSize: 0x34 }
  - { offsetInCU: 0x177A4, offset: 0x5A80D, size: 0x8, addend: 0x0, symName: __ZNKSt3__14__fs10filesystem4path6nativeB8ue170006Ev, symObjAddr: 0x1DA0, symBinAddr: 0x10000E6CC, symSize: 0x14 }
  - { offsetInCU: 0x177CA, offset: 0x5A833, size: 0x8, addend: 0x0, symName: __ZNSt3__112basic_stringIcNS_11char_traitsIcEENS_9allocatorIcEEEpLB8ue170006ERKS5_, symObjAddr: 0x1DB4, symBinAddr: 0x10000E6E0, symSize: 0x2C }
  - { offsetInCU: 0x177FF, offset: 0x5A868, size: 0x8, addend: 0x0, symName: __ZNKSt3__14__fs10filesystem4path18has_root_directoryB8ue170006Ev, symObjAddr: 0x1DE0, symBinAddr: 0x10000E70C, symSize: 0x40 }
  - { offsetInCU: 0x17825, offset: 0x5A88E, size: 0x8, addend: 0x0, symName: __ZNKSt3__117basic_string_viewIcNS_11char_traitsIcEEE5emptyB8ue170006Ev, symObjAddr: 0x1E20, symBinAddr: 0x10000E74C, symSize: 0x24 }
  - { offsetInCU: 0x1784B, offset: 0x5A8B4, size: 0x8, addend: 0x0, symName: __ZNSt3__112basic_stringIcNS_11char_traitsIcEENS_9allocatorIcEEE6appendB8ue170006ERKS5_, symObjAddr: 0x1E44, symBinAddr: 0x10000E770, symSize: 0x4C }
  - { offsetInCU: 0x17880, offset: 0x5A8E9, size: 0x8, addend: 0x0, symName: __ZNKSt3__112basic_stringIcNS_11char_traitsIcEENS_9allocatorIcEEE4dataB8ue170006Ev, symObjAddr: 0x1E90, symBinAddr: 0x10000E7BC, symSize: 0x28 }
  - { offsetInCU: 0x178A6, offset: 0x5A90F, size: 0x8, addend: 0x0, symName: __ZNKSt3__112basic_stringIcNS_11char_traitsIcEENS_9allocatorIcEEE13__get_pointerB8ue170006Ev, symObjAddr: 0x1F20, symBinAddr: 0x10000E7F8, symSize: 0x54 }
  - { offsetInCU: 0x178CC, offset: 0x5A935, size: 0x8, addend: 0x0, symName: __ZNKSt3__112basic_stringIcNS_11char_traitsIcEENS_9allocatorIcEEE18__get_long_pointerB8ue170006Ev, symObjAddr: 0x1FAC, symBinAddr: 0x10000E84C, symSize: 0x28 }
  - { offsetInCU: 0x178F2, offset: 0x5A95B, size: 0x8, addend: 0x0, symName: __ZNKSt3__112basic_stringIcNS_11char_traitsIcEENS_9allocatorIcEEE19__get_short_pointerB8ue170006Ev, symObjAddr: 0x1FD4, symBinAddr: 0x10000E874, symSize: 0x28 }
  - { offsetInCU: 0x17918, offset: 0x5A981, size: 0x8, addend: 0x0, symName: __ZNSt3__114pointer_traitsIPKcE10pointer_toB8ue170006ERS1_, symObjAddr: 0x2034, symBinAddr: 0x10000E89C, symSize: 0x14 }
  - { offsetInCU: 0x1793B, offset: 0x5A9A4, size: 0x8, addend: 0x0, symName: __ZNSt3__112basic_stringIcNS_11char_traitsIcEENS_9allocatorIcEEEC1INS_17basic_string_viewIcS2_EELi0EEERKT_, symObjAddr: 0x20A4, symBinAddr: 0x10000E8B0, symSize: 0x34 }
  - { offsetInCU: 0x17984, offset: 0x5A9ED, size: 0x8, addend: 0x0, symName: __ZNSt3__14__fs10filesystem4pathC1B8ue170006EONS_12basic_stringIcNS_11char_traitsIcEENS_9allocatorIcEEEENS2_6formatE, symObjAddr: 0x20D8, symBinAddr: 0x10000E8E4, symSize: 0x3C }
  - { offsetInCU: 0x179C9, offset: 0x5AA32, size: 0x8, addend: 0x0, symName: __ZNSt3__112basic_stringIcNS_11char_traitsIcEENS_9allocatorIcEEEC2INS_17basic_string_viewIcS2_EELi0EEERKT_, symObjAddr: 0x2114, symBinAddr: 0x10000E920, symSize: 0x70 }
  - { offsetInCU: 0x17A34, offset: 0x5AA9D, size: 0x8, addend: 0x0, symName: __ZNKSt3__117basic_string_viewIcNS_11char_traitsIcEEE4dataB8ue170006Ev, symObjAddr: 0x21C0, symBinAddr: 0x10000E990, symSize: 0x18 }
  - { offsetInCU: 0x17A5A, offset: 0x5AAC3, size: 0x8, addend: 0x0, symName: __ZNKSt3__117basic_string_viewIcNS_11char_traitsIcEEE4sizeB8ue170006Ev, symObjAddr: 0x21D8, symBinAddr: 0x10000E9A8, symSize: 0x18 }
  - { offsetInCU: 0x17A80, offset: 0x5AAE9, size: 0x8, addend: 0x0, symName: __ZNSt3__14__fs10filesystem4pathC2B8ue170006EONS_12basic_stringIcNS_11char_traitsIcEENS_9allocatorIcEEEENS2_6formatE, symObjAddr: 0x22AC, symBinAddr: 0x10000E9C0, symSize: 0x38 }
  - { offsetInCU: 0x17AC5, offset: 0x5AB2E, size: 0x8, addend: 0x0, symName: __ZNSt3__112basic_stringIcNS_11char_traitsIcEENS_9allocatorIcEEEC1B8ue170006EOS5_, symObjAddr: 0x22E4, symBinAddr: 0x10000E9F8, symSize: 0x34 }
  - { offsetInCU: 0x17AFE, offset: 0x5AB67, size: 0x8, addend: 0x0, symName: __ZNSt3__112basic_stringIcNS_11char_traitsIcEENS_9allocatorIcEEEC2B8ue170006EOS5_, symObjAddr: 0x2318, symBinAddr: 0x10000EA2C, symSize: 0x50 }
  - { offsetInCU: 0x17B37, offset: 0x5ABA0, size: 0x8, addend: 0x0, symName: __ZNSt3__112basic_stringIcNS_11char_traitsIcEENS_9allocatorIcEEE14__default_initB8ue170006Ev, symObjAddr: 0x2368, symBinAddr: 0x10000EA7C, symSize: 0x40 }
  - { offsetInCU: 0x17B5D, offset: 0x5ABC6, size: 0x8, addend: 0x0, symName: __ZNSt3__14__fs10filesystem4pathD2B8ue170006Ev, symObjAddr: 0x23EC, symBinAddr: 0x10000EABC, symSize: 0x2C }
  - { offsetInCU: 0x17B87, offset: 0x5ABF0, size: 0x8, addend: 0x0, symName: __ZN16SpriteDefinitionC2Ev, symObjAddr: 0x2418, symBinAddr: 0x10000EAE8, symSize: 0x60 }
  - { offsetInCU: 0x17BB3, offset: 0x5AC1C, size: 0x8, addend: 0x0, symName: __ZN2sf6SpriteC2ERKS0_, symObjAddr: 0x250C, symBinAddr: 0x10000EB48, symSize: 0x88 }
  - { offsetInCU: 0x17BE8, offset: 0x5AC51, size: 0x8, addend: 0x0, symName: __ZNSt3__112basic_stringIcNS_11char_traitsIcEENS_9allocatorIcEEEC2B8ue170006Ev, symObjAddr: 0x2650, symBinAddr: 0x10000EBD0, symSize: 0x44 }
  - { offsetInCU: 0x17C12, offset: 0x5AC7B, size: 0x8, addend: 0x0, symName: __ZNSt3__112basic_stringIcNS_11char_traitsIcEENS_9allocatorIcEEE13__move_assignB8ue170006ERS5_NS_17integral_constantIbLb1EEE, symObjAddr: 0x2694, symBinAddr: 0x10000EC14, symSize: 0xC8 }
  - { offsetInCU: 0x17C55, offset: 0x5ACBE, size: 0x8, addend: 0x0, symName: __ZNSt3__116allocator_traitsINS_9allocatorIcEEE10deallocateB8ue170006ERS2_Pcm, symObjAddr: 0x275C, symBinAddr: 0x10000ECDC, symSize: 0x34 }
  - { offsetInCU: 0x17C97, offset: 0x5AD00, size: 0x8, addend: 0x0, symName: __ZNSt3__112basic_stringIcNS_11char_traitsIcEENS_9allocatorIcEEE7__allocB8ue170006Ev, symObjAddr: 0x2790, symBinAddr: 0x10000ED10, symSize: 0x24 }
  - { offsetInCU: 0x17CBD, offset: 0x5AD26, size: 0x8, addend: 0x0, symName: __ZNKSt3__112basic_stringIcNS_11char_traitsIcEENS_9allocatorIcEEE14__get_long_capB8ue170006Ev, symObjAddr: 0x27DC, symBinAddr: 0x10000ED34, symSize: 0x30 }
  - { offsetInCU: 0x17CE3, offset: 0x5AD4C, size: 0x8, addend: 0x0, symName: __ZNSt3__112basic_stringIcNS_11char_traitsIcEENS_9allocatorIcEEE19__move_assign_allocB8ue170006ERS5_, symObjAddr: 0x280C, symBinAddr: 0x10000ED64, symSize: 0x2C }
  - { offsetInCU: 0x17D18, offset: 0x5AD81, size: 0x8, addend: 0x0, symName: __ZNSt3__112basic_stringIcNS_11char_traitsIcEENS_9allocatorIcEEE16__set_short_sizeB8ue170006Em, symObjAddr: 0x2838, symBinAddr: 0x10000ED90, symSize: 0x78 }
  - { offsetInCU: 0x17D4D, offset: 0x5ADB6, size: 0x8, addend: 0x0, symName: __ZNSt3__111char_traitsIcE6assignB8ue170006ERcRKc, symObjAddr: 0x28B0, symBinAddr: 0x10000EE08, symSize: 0x24 }
  - { offsetInCU: 0x17D7E, offset: 0x5ADE7, size: 0x8, addend: 0x0, symName: __ZNSt3__19allocatorIcE10deallocateB8ue170006EPcm, symObjAddr: 0x28FC, symBinAddr: 0x10000EE2C, symSize: 0x40 }
  - { offsetInCU: 0x17DC0, offset: 0x5AE29, size: 0x8, addend: 0x0, symName: __ZNSt3__117__compressed_pairINS_12basic_stringIcNS_11char_traitsIcEENS_9allocatorIcEEE5__repES5_E6secondB8ue170006Ev, symObjAddr: 0x2A64, symBinAddr: 0x10000EE6C, symSize: 0x24 }
  - { offsetInCU: 0x17DE6, offset: 0x5AE4F, size: 0x8, addend: 0x0, symName: __ZNSt3__122__compressed_pair_elemINS_9allocatorIcEELi1ELb1EE5__getB8ue170006Ev, symObjAddr: 0x2A88, symBinAddr: 0x10000EE90, symSize: 0x14 }
  - { offsetInCU: 0x17E0C, offset: 0x5AE75, size: 0x8, addend: 0x0, symName: __ZNSt3__112basic_stringIcNS_11char_traitsIcEENS_9allocatorIcEEE19__move_assign_allocB8ue170006ERS5_NS_17integral_constantIbLb1EEE, symObjAddr: 0x2A9C, symBinAddr: 0x10000EEA4, symSize: 0x38 }
  - { offsetInCU: 0x17E4D, offset: 0x5AEB6, size: 0x8, addend: 0x0, symName: __ZNSt3__16vectorI16SpriteDefinitionNS_9allocatorIS1_EEEC2B8ue170006Ev, symObjAddr: 0x2AE8, symBinAddr: 0x10000EEDC, symSize: 0x4C }
  - { offsetInCU: 0x17E7C, offset: 0x5AEE5, size: 0x8, addend: 0x0, symName: __ZNSt3__117__compressed_pairIP16SpriteDefinitionNS_9allocatorIS1_EEEC1B8ue170006IDnNS_18__default_init_tagEEEOT_OT0_, symObjAddr: 0x2B34, symBinAddr: 0x10000EF28, symSize: 0x3C }
  - { offsetInCU: 0x17ED4, offset: 0x5AF3D, size: 0x8, addend: 0x0, symName: __ZNSt3__117__compressed_pairIP16SpriteDefinitionNS_9allocatorIS1_EEEC2B8ue170006IDnNS_18__default_init_tagEEEOT_OT0_, symObjAddr: 0x2B70, symBinAddr: 0x10000EF64, symSize: 0x40 }
  - { offsetInCU: 0x17F2C, offset: 0x5AF95, size: 0x8, addend: 0x0, symName: __ZNSt3__122__compressed_pair_elemIP16SpriteDefinitionLi0ELb0EEC2B8ue170006IDnvEEOT_, symObjAddr: 0x2BB0, symBinAddr: 0x10000EFA4, symSize: 0x1C }
  - { offsetInCU: 0x17F6E, offset: 0x5AFD7, size: 0x8, addend: 0x0, symName: __ZNSt3__122__compressed_pair_elemINS_9allocatorI16SpriteDefinitionEELi1ELb1EEC2B8ue170006ENS_18__default_init_tagE, symObjAddr: 0x2BCC, symBinAddr: 0x10000EFC0, symSize: 0x2C }
  - { offsetInCU: 0x17FA3, offset: 0x5B00C, size: 0x8, addend: 0x0, symName: __ZNSt3__19allocatorI16SpriteDefinitionEC2B8ue170006Ev, symObjAddr: 0x2BF8, symBinAddr: 0x10000EFEC, symSize: 0x2C }
  - { offsetInCU: 0x17FCD, offset: 0x5B036, size: 0x8, addend: 0x0, symName: __ZNSt3__116__non_trivial_ifILb1ENS_9allocatorI16SpriteDefinitionEEEC2B8ue170006Ev, symObjAddr: 0x2C24, symBinAddr: 0x10000F018, symSize: 0x14 }
  - { offsetInCU: 0x17FF7, offset: 0x5B060, size: 0x8, addend: 0x0, symName: __ZNSt3__13mapINS_12basic_stringIcNS_11char_traitsIcEENS_9allocatorIcEEEES6_NS_4lessIS6_EENS4_INS_4pairIKS6_S6_EEEEEC2B8ue170006Ev, symObjAddr: 0x2C38, symBinAddr: 0x10000F02C, symSize: 0x40 }
  - { offsetInCU: 0x18021, offset: 0x5B08A, size: 0x8, addend: 0x0, symName: __ZNSt3__119__map_value_compareINS_12basic_stringIcNS_11char_traitsIcEENS_9allocatorIcEEEENS_12__value_typeIS6_S6_EENS_4lessIS6_EELb1EEC1B8ue170006ESA_, symObjAddr: 0x2C78, symBinAddr: 0x10000F06C, symSize: 0x2C }
  - { offsetInCU: 0x1805A, offset: 0x5B0C3, size: 0x8, addend: 0x0, symName: __ZNSt3__16__treeINS_12__value_typeINS_12basic_stringIcNS_11char_traitsIcEENS_9allocatorIcEEEES7_EENS_19__map_value_compareIS7_S8_NS_4lessIS7_EELb1EEENS5_IS8_EEEC1ERKSC_, symObjAddr: 0x2CA4, symBinAddr: 0x10000F098, symSize: 0x34 }
  - { offsetInCU: 0x18095, offset: 0x5B0FE, size: 0x8, addend: 0x0, symName: __ZNSt3__119__map_value_compareINS_12basic_stringIcNS_11char_traitsIcEENS_9allocatorIcEEEENS_12__value_typeIS6_S6_EENS_4lessIS6_EELb1EEC2B8ue170006ESA_, symObjAddr: 0x2CD8, symBinAddr: 0x10000F0CC, symSize: 0x14 }
  - { offsetInCU: 0x180CE, offset: 0x5B137, size: 0x8, addend: 0x0, symName: __ZNSt3__16__treeINS_12__value_typeINS_12basic_stringIcNS_11char_traitsIcEENS_9allocatorIcEEEES7_EENS_19__map_value_compareIS7_S8_NS_4lessIS7_EELb1EEENS5_IS8_EEEC2ERKSC_, symObjAddr: 0x2CEC, symBinAddr: 0x10000F0E0, symSize: 0x7C }
  - { offsetInCU: 0x18109, offset: 0x5B172, size: 0x8, addend: 0x0, symName: __ZNSt3__117__compressed_pairINS_15__tree_end_nodeIPNS_16__tree_node_baseIPvEEEENS_9allocatorINS_11__tree_nodeINS_12__value_typeINS_12basic_stringIcNS_11char_traitsIcEENS7_IcEEEESE_EES3_EEEEEC1B8ue170006ILb1EvEEv, symObjAddr: 0x2D68, symBinAddr: 0x10000F15C, symSize: 0x2C }
  - { offsetInCU: 0x18143, offset: 0x5B1AC, size: 0x8, addend: 0x0, symName: __ZNSt3__117__compressed_pairImNS_19__map_value_compareINS_12basic_stringIcNS_11char_traitsIcEENS_9allocatorIcEEEENS_12__value_typeIS7_S7_EENS_4lessIS7_EELb1EEEEC1B8ue170006IiRKSC_EEOT_OT0_, symObjAddr: 0x2D94, symBinAddr: 0x10000F188, symSize: 0x3C }
  - { offsetInCU: 0x1819B, offset: 0x5B204, size: 0x8, addend: 0x0, symName: __ZNSt3__16__treeINS_12__value_typeINS_12basic_stringIcNS_11char_traitsIcEENS_9allocatorIcEEEES7_EENS_19__map_value_compareIS7_S8_NS_4lessIS7_EELb1EEENS5_IS8_EEE10__end_nodeB8ue170006Ev, symObjAddr: 0x2DD0, symBinAddr: 0x10000F1C4, symSize: 0x2C }
  - { offsetInCU: 0x181C1, offset: 0x5B22A, size: 0x8, addend: 0x0, symName: __ZNSt3__16__treeINS_12__value_typeINS_12basic_stringIcNS_11char_traitsIcEENS_9allocatorIcEEEES7_EENS_19__map_value_compareIS7_S8_NS_4lessIS7_EELb1EEENS5_IS8_EEE12__begin_nodeB8ue170006Ev, symObjAddr: 0x2DFC, symBinAddr: 0x10000F1F0, symSize: 0x14 }
  - { offsetInCU: 0x181E7, offset: 0x5B250, size: 0x8, addend: 0x0, symName: __ZNSt3__117__compressed_pairINS_15__tree_end_nodeIPNS_16__tree_node_baseIPvEEEENS_9allocatorINS_11__tree_nodeINS_12__value_typeINS_12basic_stringIcNS_11char_traitsIcEENS7_IcEEEESE_EES3_EEEEEC2B8ue170006ILb1EvEEv, symObjAddr: 0x2E10, symBinAddr: 0x10000F204, symSize: 0x34 }
  - { offsetInCU: 0x1821C, offset: 0x5B285, size: 0x8, addend: 0x0, symName: __ZNSt3__122__compressed_pair_elemINS_15__tree_end_nodeIPNS_16__tree_node_baseIPvEEEELi0ELb0EEC2B8ue170006ENS_16__value_init_tagE, symObjAddr: 0x2E44, symBinAddr: 0x10000F238, symSize: 0x2C }
  - { offsetInCU: 0x18251, offset: 0x5B2BA, size: 0x8, addend: 0x0, symName: __ZNSt3__122__compressed_pair_elemINS_9allocatorINS_11__tree_nodeINS_12__value_typeINS_12basic_stringIcNS_11char_traitsIcEENS1_IcEEEES8_EEPvEEEELi1ELb1EEC2B8ue170006ENS_16__value_init_tagE, symObjAddr: 0x2E70, symBinAddr: 0x10000F264, symSize: 0x2C }
  - { offsetInCU: 0x18286, offset: 0x5B2EF, size: 0x8, addend: 0x0, symName: __ZNSt3__115__tree_end_nodeIPNS_16__tree_node_baseIPvEEEC1B8ue170006Ev, symObjAddr: 0x2E9C, symBinAddr: 0x10000F290, symSize: 0x2C }
  - { offsetInCU: 0x182B0, offset: 0x5B319, size: 0x8, addend: 0x0, symName: __ZNSt3__115__tree_end_nodeIPNS_16__tree_node_baseIPvEEEC2B8ue170006Ev, symObjAddr: 0x2EC8, symBinAddr: 0x10000F2BC, symSize: 0x18 }
  - { offsetInCU: 0x182DA, offset: 0x5B343, size: 0x8, addend: 0x0, symName: __ZNSt3__19allocatorINS_11__tree_nodeINS_12__value_typeINS_12basic_stringIcNS_11char_traitsIcEENS0_IcEEEES7_EEPvEEEC2B8ue170006Ev, symObjAddr: 0x2EE0, symBinAddr: 0x10000F2D4, symSize: 0x2C }
  - { offsetInCU: 0x18304, offset: 0x5B36D, size: 0x8, addend: 0x0, symName: __ZNSt3__116__non_trivial_ifILb1ENS_9allocatorINS_11__tree_nodeINS_12__value_typeINS_12basic_stringIcNS_11char_traitsIcEENS1_IcEEEES8_EEPvEEEEEC2B8ue170006Ev, symObjAddr: 0x2F0C, symBinAddr: 0x10000F300, symSize: 0x14 }
  - { offsetInCU: 0x1832E, offset: 0x5B397, size: 0x8, addend: 0x0, symName: __ZNSt3__117__compressed_pairImNS_19__map_value_compareINS_12basic_stringIcNS_11char_traitsIcEENS_9allocatorIcEEEENS_12__value_typeIS7_S7_EENS_4lessIS7_EELb1EEEEC2B8ue170006IiRKSC_EEOT_OT0_, symObjAddr: 0x2F20, symBinAddr: 0x10000F314, symSize: 0x44 }
  - { offsetInCU: 0x18386, offset: 0x5B3EF, size: 0x8, addend: 0x0, symName: __ZNSt3__122__compressed_pair_elemImLi0ELb0EEC2B8ue170006IivEEOT_, symObjAddr: 0x2F64, symBinAddr: 0x10000F358, symSize: 0x24 }
  - { offsetInCU: 0x183C8, offset: 0x5B431, size: 0x8, addend: 0x0, symName: __ZNSt3__122__compressed_pair_elemINS_19__map_value_compareINS_12basic_stringIcNS_11char_traitsIcEENS_9allocatorIcEEEENS_12__value_typeIS7_S7_EENS_4lessIS7_EELb1EEELi1ELb1EEC2B8ue170006IRKSC_vEEOT_, symObjAddr: 0x2F88, symBinAddr: 0x10000F37C, symSize: 0x18 }
  - { offsetInCU: 0x1840A, offset: 0x5B473, size: 0x8, addend: 0x0, symName: __ZNSt3__117__compressed_pairINS_15__tree_end_nodeIPNS_16__tree_node_baseIPvEEEENS_9allocatorINS_11__tree_nodeINS_12__value_typeINS_12basic_stringIcNS_11char_traitsIcEENS7_IcEEEESE_EES3_EEEEE5firstB8ue170006Ev, symObjAddr: 0x2FB4, symBinAddr: 0x10000F394, symSize: 0x24 }
  - { offsetInCU: 0x18430, offset: 0x5B499, size: 0x8, addend: 0x0, symName: __ZNSt3__122__compressed_pair_elemINS_15__tree_end_nodeIPNS_16__tree_node_baseIPvEEEELi0ELb0EE5__getB8ue170006Ev, symObjAddr: 0x2FD8, symBinAddr: 0x10000F3B8, symSize: 0x14 }
  - { offsetInCU: 0x18474, offset: 0x5B4DD, size: 0x8, addend: 0x0, symName: __ZNSt3__14__fs10filesystem4pathC2B8ue170006INS_12basic_stringIcNS_11char_traitsIcEENS_9allocatorIcEEEEvEERKT_NS2_6formatE, symObjAddr: 0x41A4, symBinAddr: 0x10000F3CC, symSize: 0x68 }
  - { offsetInCU: 0x184C8, offset: 0x5B531, size: 0x8, addend: 0x0, symName: __ZNSt3__14__fs10filesystem8_PathCVTIcE15__append_sourceB8ue170006INS_12basic_stringIcNS_11char_traitsIcEENS_9allocatorIcEEEEEEvRSA_RKT_, symObjAddr: 0x420C, symBinAddr: 0x10000F434, symSize: 0x4C }
  - { offsetInCU: 0x18504, offset: 0x5B56D, size: 0x8, addend: 0x0, symName: __ZNSt3__14__fs10filesystem8_PathCVTIcE14__append_rangeB8ue170006IPKcEENS_9enable_ifIXsr31__has_forward_iterator_categoryIT_EE5valueEvE4typeERNS_12basic_stringIcNS_11char_traitsIcEENS_9allocatorIcEEEES8_S8_, symObjAddr: 0x4258, symBinAddr: 0x10000F480, symSize: 0x34 }
  - { offsetInCU: 0x18559, offset: 0x5B5C2, size: 0x8, addend: 0x0, symName: __ZNSt3__14__fs10filesystem20__is_pathable_stringINS_12basic_stringIcNS_11char_traitsIcEENS_9allocatorIcEEEEvE13__range_beginB8ue170006ERKS8_, symObjAddr: 0x428C, symBinAddr: 0x10000F4B4, symSize: 0x24 }
  - { offsetInCU: 0x1857C, offset: 0x5B5E5, size: 0x8, addend: 0x0, symName: __ZNSt3__14__fs10filesystem20__is_pathable_stringINS_12basic_stringIcNS_11char_traitsIcEENS_9allocatorIcEEEEvE11__range_endB8ue170006ERKS8_, symObjAddr: 0x42B0, symBinAddr: 0x10000F4D8, symSize: 0x3C }
  - { offsetInCU: 0x1859F, offset: 0x5B608, size: 0x8, addend: 0x0, symName: __ZNSt3__112basic_stringIcNS_11char_traitsIcEENS_9allocatorIcEEE6appendB8ue170006IPKcLi0EEERS5_T_SA_, symObjAddr: 0x42EC, symBinAddr: 0x10000F514, symSize: 0x1E4 }
  - { offsetInCU: 0x18655, offset: 0x5B6BE, size: 0x8, addend: 0x0, symName: __ZNKSt3__112basic_stringIcNS_11char_traitsIcEENS_9allocatorIcEEE8capacityB8ue170006Ev, symObjAddr: 0x44D0, symBinAddr: 0x10000F6F8, symSize: 0x54 }
  - { offsetInCU: 0x1867B, offset: 0x5B6E4, size: 0x8, addend: 0x0, symName: __ZNKSt3__112basic_stringIcNS_11char_traitsIcEENS_9allocatorIcEEE15__addr_in_rangeB8ue170006IcEEbRKT_, symObjAddr: 0x4550, symBinAddr: 0x10000F778, symSize: 0x6C }
  - { offsetInCU: 0x186B9, offset: 0x5B722, size: 0x8, addend: 0x0, symName: __ZNSt3__112basic_stringIcNS_11char_traitsIcEENS_9allocatorIcEEE25__grow_by_without_replaceB8ue170006Emmmmmm, symObjAddr: 0x45BC, symBinAddr: 0x10000F7E4, symSize: 0x74 }
  - { offsetInCU: 0x1873B, offset: 0x5B7A4, size: 0x8, addend: 0x0, symName: __ZNSt3__112basic_stringIcNS_11char_traitsIcEENS_9allocatorIcEEE10__set_sizeB8ue170006Em, symObjAddr: 0x4630, symBinAddr: 0x10000F858, symSize: 0x54 }
  - { offsetInCU: 0x18770, offset: 0x5B7D9, size: 0x8, addend: 0x0, symName: __ZNSt3__112basic_stringIcNS_11char_traitsIcEENS_9allocatorIcEEEC1B8ue170006IPKcLi0EEET_S9_RKS4_, symObjAddr: 0x4684, symBinAddr: 0x10000F8AC, symSize: 0x44 }
  - { offsetInCU: 0x187E1, offset: 0x5B84A, size: 0x8, addend: 0x0, symName: __ZNKSt3__16__lessIvvEclB8ue170006IPKcS4_EEbRKT_RKT0_, symObjAddr: 0x4750, symBinAddr: 0x10000F978, symSize: 0x34 }
  - { offsetInCU: 0x18835, offset: 0x5B89E, size: 0x8, addend: 0x0, symName: __ZNSt3__112basic_stringIcNS_11char_traitsIcEENS_9allocatorIcEEE15__set_long_sizeB8ue170006Em, symObjAddr: 0x4784, symBinAddr: 0x10000F9AC, symSize: 0x38 }
  - { offsetInCU: 0x1886A, offset: 0x5B8D3, size: 0x8, addend: 0x0, symName: __ZNSt3__112basic_stringIcNS_11char_traitsIcEENS_9allocatorIcEEEC2B8ue170006IPKcLi0EEET_S9_RKS4_, symObjAddr: 0x47BC, symBinAddr: 0x10000F9E4, symSize: 0x50 }
  - { offsetInCU: 0x188D1, offset: 0x5B93A, size: 0x8, addend: 0x0, symName: __ZNSt3__117__compressed_pairINS_12basic_stringIcNS_11char_traitsIcEENS_9allocatorIcEEE5__repES5_EC1B8ue170006INS_18__default_init_tagERKS5_EEOT_OT0_, symObjAddr: 0x480C, symBinAddr: 0x10000FA34, symSize: 0x3C }
  - { offsetInCU: 0x18929, offset: 0x5B992, size: 0x8, addend: 0x0, symName: __ZNSt3__112basic_stringIcNS_11char_traitsIcEENS_9allocatorIcEEE6__initIPKcLi0EEEvT_S9_, symObjAddr: 0x4848, symBinAddr: 0x10000FA70, symSize: 0x54 }
  - { offsetInCU: 0x1898E, offset: 0x5B9F7, size: 0x8, addend: 0x0, symName: __ZNSt3__117__compressed_pairINS_12basic_stringIcNS_11char_traitsIcEENS_9allocatorIcEEE5__repES5_EC2B8ue170006INS_18__default_init_tagERKS5_EEOT_OT0_, symObjAddr: 0x489C, symBinAddr: 0x10000FAC4, symSize: 0x40 }
  - { offsetInCU: 0x189E6, offset: 0x5BA4F, size: 0x8, addend: 0x0, symName: __ZNSt3__122__compressed_pair_elemINS_9allocatorIcEELi1ELb1EEC2B8ue170006IRKS2_vEEOT_, symObjAddr: 0x48DC, symBinAddr: 0x10000FB04, symSize: 0x18 }
  - { offsetInCU: 0x18A28, offset: 0x5BA91, size: 0x8, addend: 0x0, symName: __ZNSt3__112basic_stringIcNS_11char_traitsIcEENS_9allocatorIcEEE16__init_with_sizeB8ue170006IPKcS8_EEvT_T0_m, symObjAddr: 0x48F4, symBinAddr: 0x10000FB1C, symSize: 0x144 }
  - { offsetInCU: 0x18ABB, offset: 0x5BB24, size: 0x8, addend: 0x0, symName: __ZNKSt3__112basic_stringIcNS_11char_traitsIcEENS_9allocatorIcEEE8max_sizeB8ue170006Ev, symObjAddr: 0x4A38, symBinAddr: 0x10000FC60, symSize: 0xAC }
  - { offsetInCU: 0x18B0D, offset: 0x5BB76, size: 0x8, addend: 0x0, symName: __ZNKSt3__112basic_stringIcNS_11char_traitsIcEENS_9allocatorIcEEE20__throw_length_errorB8ue170006Ev, symObjAddr: 0x4AE4, symBinAddr: 0x10000FD0C, symSize: 0x1C }
  - { offsetInCU: 0x18B33, offset: 0x5BB9C, size: 0x8, addend: 0x0, symName: __ZNSt3__112basic_stringIcNS_11char_traitsIcEENS_9allocatorIcEEE13__fits_in_ssoB8ue170006Em, symObjAddr: 0x4B00, symBinAddr: 0x10000FD28, symSize: 0x20 }
  - { offsetInCU: 0x18B57, offset: 0x5BBC0, size: 0x8, addend: 0x0, symName: __ZNSt3__112basic_stringIcNS_11char_traitsIcEENS_9allocatorIcEEE11__recommendB8ue170006Em, symObjAddr: 0x4B60, symBinAddr: 0x10000FD88, symSize: 0x84 }
  - { offsetInCU: 0x18B8A, offset: 0x5BBF3, size: 0x8, addend: 0x0, symName: __ZNSt3__112basic_stringIcNS_11char_traitsIcEENS_9allocatorIcEEE16__begin_lifetimeB8ue170006EPcm, symObjAddr: 0x4BE4, symBinAddr: 0x10000FE0C, symSize: 0x14 }
  - { offsetInCU: 0x18BBD, offset: 0x5BC26, size: 0x8, addend: 0x0, symName: __ZNSt3__112basic_stringIcNS_11char_traitsIcEENS_9allocatorIcEEE18__set_long_pointerB8ue170006EPc, symObjAddr: 0x4BF8, symBinAddr: 0x10000FE20, symSize: 0x38 }
  - { offsetInCU: 0x18BF2, offset: 0x5BC5B, size: 0x8, addend: 0x0, symName: __ZNSt3__112basic_stringIcNS_11char_traitsIcEENS_9allocatorIcEEE14__set_long_capB8ue170006Em, symObjAddr: 0x4C30, symBinAddr: 0x10000FE58, symSize: 0x70 }
  - { offsetInCU: 0x18C31, offset: 0x5BC9A, size: 0x8, addend: 0x0, symName: __ZNSt3__116allocator_traitsINS_9allocatorIcEEE8max_sizeB8ue170006IS2_vEEmRKS2_, symObjAddr: 0x4CA0, symBinAddr: 0x10000FEC8, symSize: 0x24 }
  - { offsetInCU: 0x18C5F, offset: 0x5BCC8, size: 0x8, addend: 0x0, symName: __ZNKSt3__112basic_stringIcNS_11char_traitsIcEENS_9allocatorIcEEE7__allocB8ue170006Ev, symObjAddr: 0x4CC4, symBinAddr: 0x10000FEEC, symSize: 0x24 }
  - { offsetInCU: 0x18C85, offset: 0x5BCEE, size: 0x8, addend: 0x0, symName: __ZNSt3__114numeric_limitsImE3maxB8ue170006Ev, symObjAddr: 0x4CE8, symBinAddr: 0x10000FF10, symSize: 0x14 }
  - { offsetInCU: 0x18C99, offset: 0x5BD02, size: 0x8, addend: 0x0, symName: __ZNKSt3__19allocatorIcE8max_sizeB8ue170006Ev, symObjAddr: 0x4CFC, symBinAddr: 0x10000FF24, symSize: 0x14 }
  - { offsetInCU: 0x18CBF, offset: 0x5BD28, size: 0x8, addend: 0x0, symName: __ZNKSt3__117__compressed_pairINS_12basic_stringIcNS_11char_traitsIcEENS_9allocatorIcEEE5__repES5_E6secondB8ue170006Ev, symObjAddr: 0x4D10, symBinAddr: 0x10000FF38, symSize: 0x24 }
  - { offsetInCU: 0x18CE5, offset: 0x5BD4E, size: 0x8, addend: 0x0, symName: __ZNKSt3__122__compressed_pair_elemINS_9allocatorIcEELi1ELb1EE5__getB8ue170006Ev, symObjAddr: 0x4D34, symBinAddr: 0x10000FF5C, symSize: 0x14 }
  - { offsetInCU: 0x18D0B, offset: 0x5BD74, size: 0x8, addend: 0x0, symName: __ZNSt3__123__libcpp_numeric_limitsImLb1EE3maxB8ue170006Ev, symObjAddr: 0x4D48, symBinAddr: 0x10000FF70, symSize: 0x8 }
  - { offsetInCU: 0x18D1F, offset: 0x5BD88, size: 0x8, addend: 0x0, symName: __ZNSt3__19allocatorIcE8allocateB8ue170006Em, symObjAddr: 0x4E34, symBinAddr: 0x10000FF78, symSize: 0x58 }
  - { offsetInCU: 0x18D53, offset: 0x5BDBC, size: 0x8, addend: 0x0, symName: __ZNSt3__112basic_stringIcNS_11char_traitsIcEENS_9allocatorIcEEE10__align_itB8ue170006ILm16EEEmm, symObjAddr: 0x4F70, symBinAddr: 0x10000FFD0, symSize: 0x1C }
  - { offsetInCU: 0x18D81, offset: 0x5BDEA, size: 0x8, addend: 0x0, symName: __ZNKSt3__112basic_stringIcNS_11char_traitsIcEENS_9allocatorIcEEE6lengthB8ue170006Ev, symObjAddr: 0x4F8C, symBinAddr: 0x10000FFEC, symSize: 0x24 }
  - { offsetInCU: 0x18DA7, offset: 0x5BE10, size: 0x8, addend: 0x0, symName: __ZNSt3__111char_traitsIcE2eqEcc, symObjAddr: 0x51A8, symBinAddr: 0x100010208, symSize: 0x28 }
  - { offsetInCU: 0x18DDD, offset: 0x5BE46, size: 0x8, addend: 0x0, symName: __ZNSt3__121__quoted_output_proxyIcNS_11char_traitsIcEEEC1B8ue170006EPKcS5_cc, symObjAddr: 0x51D0, symBinAddr: 0x100010230, symSize: 0x4C }
  - { offsetInCU: 0x18E43, offset: 0x5BEAC, size: 0x8, addend: 0x0, symName: __ZNSt3__121__quoted_output_proxyIcNS_11char_traitsIcEEEC2B8ue170006EPKcS5_cc, symObjAddr: 0x521C, symBinAddr: 0x10001027C, symSize: 0x44 }
  - { offsetInCU: 0x18EA9, offset: 0x5BF12, size: 0x8, addend: 0x0, symName: __ZNSt3__16vectorI16SpriteDefinitionNS_9allocatorIS1_EEE9__end_capB8ue170006Ev, symObjAddr: 0x52A4, symBinAddr: 0x1000102C0, symSize: 0x28 }
  - { offsetInCU: 0x18ECF, offset: 0x5BF38, size: 0x8, addend: 0x0, symName: __ZNSt3__16vectorI16SpriteDefinitionNS_9allocatorIS1_EEE22__construct_one_at_endB8ue170006IJRKS1_EEEvDpOT_, symObjAddr: 0x52CC, symBinAddr: 0x1000102E8, symSize: 0x90 }
  - { offsetInCU: 0x18F1E, offset: 0x5BF87, size: 0x8, addend: 0x0, symName: __ZNSt3__16vectorI16SpriteDefinitionNS_9allocatorIS1_EEE21__push_back_slow_pathIRKS1_EEvOT_, symObjAddr: 0x535C, symBinAddr: 0x100010378, symSize: 0xD8 }
  - { offsetInCU: 0x18F7C, offset: 0x5BFE5, size: 0x8, addend: 0x0, symName: __ZNSt3__117__compressed_pairIP16SpriteDefinitionNS_9allocatorIS1_EEE5firstB8ue170006Ev, symObjAddr: 0x5434, symBinAddr: 0x100010450, symSize: 0x24 }
  - { offsetInCU: 0x18FA2, offset: 0x5C00B, size: 0x8, addend: 0x0, symName: __ZNSt3__122__compressed_pair_elemIP16SpriteDefinitionLi0ELb0EE5__getB8ue170006Ev, symObjAddr: 0x5458, symBinAddr: 0x100010474, symSize: 0x14 }
  - { offsetInCU: 0x18FE1, offset: 0x5C04A, size: 0x8, addend: 0x0, symName: __ZNSt3__16vectorI16SpriteDefinitionNS_9allocatorIS1_EEE21_ConstructTransactionC1B8ue170006ERS4_m, symObjAddr: 0x546C, symBinAddr: 0x100010488, symSize: 0x3C }
  - { offsetInCU: 0x19029, offset: 0x5C092, size: 0x8, addend: 0x0, symName: __ZNSt3__116allocator_traitsINS_9allocatorI16SpriteDefinitionEEE9constructB8ue170006IS2_JRKS2_EvEEvRS3_PT_DpOT0_, symObjAddr: 0x54A8, symBinAddr: 0x1000104C4, symSize: 0x34 }
  - { offsetInCU: 0x19080, offset: 0x5C0E9, size: 0x8, addend: 0x0, symName: __ZNSt3__16vectorI16SpriteDefinitionNS_9allocatorIS1_EEE21_ConstructTransactionD1B8ue170006Ev, symObjAddr: 0x54DC, symBinAddr: 0x1000104F8, symSize: 0x2C }
  - { offsetInCU: 0x190AA, offset: 0x5C113, size: 0x8, addend: 0x0, symName: __ZNSt3__16vectorI16SpriteDefinitionNS_9allocatorIS1_EEE21_ConstructTransactionC2B8ue170006ERS4_m, symObjAddr: 0x5508, symBinAddr: 0x100010524, symSize: 0x4C }
  - { offsetInCU: 0x190F2, offset: 0x5C15B, size: 0x8, addend: 0x0, symName: __ZNSt3__19allocatorI16SpriteDefinitionE9constructB8ue170006IS1_JRKS1_EEEvPT_DpOT0_, symObjAddr: 0x5554, symBinAddr: 0x100010570, symSize: 0x30 }
  - { offsetInCU: 0x19148, offset: 0x5C1B1, size: 0x8, addend: 0x0, symName: __ZN16SpriteDefinitionC1ERKS_, symObjAddr: 0x5584, symBinAddr: 0x1000105A0, symSize: 0x34 }
  - { offsetInCU: 0x1917D, offset: 0x5C1E6, size: 0x8, addend: 0x0, symName: __ZN16SpriteDefinitionC2ERKS_, symObjAddr: 0x55B8, symBinAddr: 0x1000105D4, symSize: 0x40 }
  - { offsetInCU: 0x191B2, offset: 0x5C21B, size: 0x8, addend: 0x0, symName: __ZNSt3__16vectorI16SpriteDefinitionNS_9allocatorIS1_EEE21_ConstructTransactionD2B8ue170006Ev, symObjAddr: 0x55F8, symBinAddr: 0x100010614, symSize: 0x20 }
  - { offsetInCU: 0x191DC, offset: 0x5C245, size: 0x8, addend: 0x0, symName: __ZNKSt3__16vectorI16SpriteDefinitionNS_9allocatorIS1_EEE11__recommendB8ue170006Em, symObjAddr: 0x5618, symBinAddr: 0x100010634, symSize: 0xB4 }
  - { offsetInCU: 0x19231, offset: 0x5C29A, size: 0x8, addend: 0x0, symName: __ZNSt3__114__split_bufferI16SpriteDefinitionRNS_9allocatorIS1_EEEC1EmmS4_, symObjAddr: 0x56CC, symBinAddr: 0x1000106E8, symSize: 0x44 }
  - { offsetInCU: 0x19287, offset: 0x5C2F0, size: 0x8, addend: 0x0, symName: __ZNSt3__114__split_bufferI16SpriteDefinitionRNS_9allocatorIS1_EEED1Ev, symObjAddr: 0x5820, symBinAddr: 0x10001083C, symSize: 0x2C }
  - { offsetInCU: 0x192B3, offset: 0x5C31C, size: 0x8, addend: 0x0, symName: __ZNKSt3__16vectorI16SpriteDefinitionNS_9allocatorIS1_EEE8max_sizeEv, symObjAddr: 0x584C, symBinAddr: 0x100010868, symSize: 0x60 }
  - { offsetInCU: 0x192DB, offset: 0x5C344, size: 0x8, addend: 0x0, symName: __ZNKSt3__16vectorI16SpriteDefinitionNS_9allocatorIS1_EEE20__throw_length_errorB8ue170006Ev, symObjAddr: 0x58AC, symBinAddr: 0x1000108C8, symSize: 0x1C }
  - { offsetInCU: 0x1930B, offset: 0x5C374, size: 0x8, addend: 0x0, symName: __ZNSt3__116allocator_traitsINS_9allocatorI16SpriteDefinitionEEE8max_sizeB8ue170006IS3_vEEmRKS3_, symObjAddr: 0x5920, symBinAddr: 0x1000108E4, symSize: 0x24 }
  - { offsetInCU: 0x19339, offset: 0x5C3A2, size: 0x8, addend: 0x0, symName: __ZNKSt3__16vectorI16SpriteDefinitionNS_9allocatorIS1_EEE7__allocB8ue170006Ev, symObjAddr: 0x5944, symBinAddr: 0x100010908, symSize: 0x28 }
  - { offsetInCU: 0x1935F, offset: 0x5C3C8, size: 0x8, addend: 0x0, symName: __ZNKSt3__19allocatorI16SpriteDefinitionE8max_sizeB8ue170006Ev, symObjAddr: 0x5A08, symBinAddr: 0x100010930, symSize: 0x18 }
  - { offsetInCU: 0x19385, offset: 0x5C3EE, size: 0x8, addend: 0x0, symName: __ZNKSt3__117__compressed_pairIP16SpriteDefinitionNS_9allocatorIS1_EEE6secondB8ue170006Ev, symObjAddr: 0x5A20, symBinAddr: 0x100010948, symSize: 0x24 }
  - { offsetInCU: 0x193AB, offset: 0x5C414, size: 0x8, addend: 0x0, symName: __ZNKSt3__122__compressed_pair_elemINS_9allocatorI16SpriteDefinitionEELi1ELb1EE5__getB8ue170006Ev, symObjAddr: 0x5A44, symBinAddr: 0x10001096C, symSize: 0x14 }
  - { offsetInCU: 0x193D1, offset: 0x5C43A, size: 0x8, addend: 0x0, symName: __ZNSt3__114__split_bufferI16SpriteDefinitionRNS_9allocatorIS1_EEEC2EmmS4_, symObjAddr: 0x5AB4, symBinAddr: 0x100010980, symSize: 0xE0 }
  - { offsetInCU: 0x19444, offset: 0x5C4AD, size: 0x8, addend: 0x0, symName: __ZNSt3__117__compressed_pairIP16SpriteDefinitionRNS_9allocatorIS1_EEEC1B8ue170006IDnS5_EEOT_OT0_, symObjAddr: 0x5B94, symBinAddr: 0x100010A60, symSize: 0x3C }
  - { offsetInCU: 0x1949C, offset: 0x5C505, size: 0x8, addend: 0x0, symName: __ZNSt3__114__split_bufferI16SpriteDefinitionRNS_9allocatorIS1_EEE7__allocB8ue170006Ev, symObjAddr: 0x5C10, symBinAddr: 0x100010ADC, symSize: 0x28 }
  - { offsetInCU: 0x194C2, offset: 0x5C52B, size: 0x8, addend: 0x0, symName: __ZNSt3__114__split_bufferI16SpriteDefinitionRNS_9allocatorIS1_EEE9__end_capB8ue170006Ev, symObjAddr: 0x5C38, symBinAddr: 0x100010B04, symSize: 0x28 }
  - { offsetInCU: 0x194E8, offset: 0x5C551, size: 0x8, addend: 0x0, symName: __ZNSt3__117__compressed_pairIP16SpriteDefinitionRNS_9allocatorIS1_EEEC2B8ue170006IDnS5_EEOT_OT0_, symObjAddr: 0x5C60, symBinAddr: 0x100010B2C, symSize: 0x48 }
  - { offsetInCU: 0x19540, offset: 0x5C5A9, size: 0x8, addend: 0x0, symName: __ZNSt3__122__compressed_pair_elemIRNS_9allocatorI16SpriteDefinitionEELi1ELb0EEC2B8ue170006IS4_vEEOT_, symObjAddr: 0x5CA8, symBinAddr: 0x100010B74, symSize: 0x20 }
  - { offsetInCU: 0x19582, offset: 0x5C5EB, size: 0x8, addend: 0x0, symName: __ZNSt3__19allocatorI16SpriteDefinitionE8allocateB8ue170006Em, symObjAddr: 0x5CC8, symBinAddr: 0x100010B94, symSize: 0x5C }
  - { offsetInCU: 0x195B6, offset: 0x5C61F, size: 0x8, addend: 0x0, symName: __ZNSt3__117__compressed_pairIP16SpriteDefinitionRNS_9allocatorIS1_EEE6secondB8ue170006Ev, symObjAddr: 0x5D24, symBinAddr: 0x100010BF0, symSize: 0x28 }
  - { offsetInCU: 0x195DC, offset: 0x5C645, size: 0x8, addend: 0x0, symName: __ZNSt3__122__compressed_pair_elemIRNS_9allocatorI16SpriteDefinitionEELi1ELb0EE5__getB8ue170006Ev, symObjAddr: 0x5D4C, symBinAddr: 0x100010C18, symSize: 0x18 }
  - { offsetInCU: 0x19602, offset: 0x5C66B, size: 0x8, addend: 0x0, symName: __ZNSt3__117__compressed_pairIP16SpriteDefinitionRNS_9allocatorIS1_EEE5firstB8ue170006Ev, symObjAddr: 0x5D64, symBinAddr: 0x100010C30, symSize: 0x24 }
  - { offsetInCU: 0x19628, offset: 0x5C691, size: 0x8, addend: 0x0, symName: __ZNSt3__116reverse_iteratorIP16SpriteDefinitionEC1B8ue170006ES2_, symObjAddr: 0x5EB4, symBinAddr: 0x100010D80, symSize: 0x34 }
  - { offsetInCU: 0x19660, offset: 0x5C6C9, size: 0x8, addend: 0x0, symName: __ZNKSt3__116reverse_iteratorIP16SpriteDefinitionE4baseB8ue170006Ev, symObjAddr: 0x5EE8, symBinAddr: 0x100010DB4, symSize: 0x18 }
  - { offsetInCU: 0x19686, offset: 0x5C6EF, size: 0x8, addend: 0x0, symName: __ZNKSt3__16vectorI16SpriteDefinitionNS_9allocatorIS1_EEE14__annotate_newB8ue170006Em, symObjAddr: 0x5F3C, symBinAddr: 0x100010E08, symSize: 0xC8 }
  - { offsetInCU: 0x196BB, offset: 0x5C724, size: 0x8, addend: 0x0, symName: __ZNSt3__129_AllocatorDestroyRangeReverseINS_9allocatorI16SpriteDefinitionEENS_16reverse_iteratorIPS2_EEEC1B8ue170006ERS3_RS6_S9_, symObjAddr: 0x6050, symBinAddr: 0x100010F1C, symSize: 0x44 }
  - { offsetInCU: 0x19717, offset: 0x5C780, size: 0x8, addend: 0x0, symName: __ZNSt3__116allocator_traitsINS_9allocatorI16SpriteDefinitionEEE9constructB8ue170006IS2_JS2_EvEEvRS3_PT_DpOT0_, symObjAddr: 0x60DC, symBinAddr: 0x100010FA8, symSize: 0x34 }
  - { offsetInCU: 0x1976E, offset: 0x5C7D7, size: 0x8, addend: 0x0, symName: __ZNKSt3__116reverse_iteratorIP16SpriteDefinitionEdeB8ue170006Ev, symObjAddr: 0x6134, symBinAddr: 0x100011000, symSize: 0x28 }
  - { offsetInCU: 0x197A3, offset: 0x5C80C, size: 0x8, addend: 0x0, symName: __ZNSt3__116reverse_iteratorIP16SpriteDefinitionEppB8ue170006Ev, symObjAddr: 0x615C, symBinAddr: 0x100011028, symSize: 0x20 }
  - { offsetInCU: 0x197C9, offset: 0x5C832, size: 0x8, addend: 0x0, symName: __ZNSt3__128__exception_guard_exceptionsINS_29_AllocatorDestroyRangeReverseINS_9allocatorI16SpriteDefinitionEENS_16reverse_iteratorIPS3_EEEEE10__completeB8ue170006Ev, symObjAddr: 0x617C, symBinAddr: 0x100011048, symSize: 0x1C }
  - { offsetInCU: 0x197EF, offset: 0x5C858, size: 0x8, addend: 0x0, symName: __ZNSt3__128__exception_guard_exceptionsINS_29_AllocatorDestroyRangeReverseINS_9allocatorI16SpriteDefinitionEENS_16reverse_iteratorIPS3_EEEEED1B8ue170006Ev, symObjAddr: 0x6198, symBinAddr: 0x100011064, symSize: 0x2C }
  - { offsetInCU: 0x19819, offset: 0x5C882, size: 0x8, addend: 0x0, symName: __ZNSt3__128__exception_guard_exceptionsINS_29_AllocatorDestroyRangeReverseINS_9allocatorI16SpriteDefinitionEENS_16reverse_iteratorIPS3_EEEEEC1B8ue170006ES8_, symObjAddr: 0x61C4, symBinAddr: 0x100011090, symSize: 0x34 }
  - { offsetInCU: 0x19852, offset: 0x5C8BB, size: 0x8, addend: 0x0, symName: __ZNSt3__128__exception_guard_exceptionsINS_29_AllocatorDestroyRangeReverseINS_9allocatorI16SpriteDefinitionEENS_16reverse_iteratorIPS3_EEEEEC2B8ue170006ES8_, symObjAddr: 0x61F8, symBinAddr: 0x1000110C4, symSize: 0x30 }
  - { offsetInCU: 0x1988B, offset: 0x5C8F4, size: 0x8, addend: 0x0, symName: __ZNSt3__129_AllocatorDestroyRangeReverseINS_9allocatorI16SpriteDefinitionEENS_16reverse_iteratorIPS2_EEEC2B8ue170006ERS3_RS6_S9_, symObjAddr: 0x6228, symBinAddr: 0x1000110F4, symSize: 0x38 }
  - { offsetInCU: 0x198E2, offset: 0x5C94B, size: 0x8, addend: 0x0, symName: __ZNSt3__19allocatorI16SpriteDefinitionE9constructB8ue170006IS1_JS1_EEEvPT_DpOT0_, symObjAddr: 0x6260, symBinAddr: 0x10001112C, symSize: 0x30 }
  - { offsetInCU: 0x19938, offset: 0x5C9A1, size: 0x8, addend: 0x0, symName: __ZN16SpriteDefinitionC1EOS_, symObjAddr: 0x6290, symBinAddr: 0x10001115C, symSize: 0x34 }
  - { offsetInCU: 0x1996D, offset: 0x5C9D6, size: 0x8, addend: 0x0, symName: __ZN16SpriteDefinitionC2EOS_, symObjAddr: 0x62C4, symBinAddr: 0x100011190, symSize: 0x40 }
  - { offsetInCU: 0x199A7, offset: 0x5CA10, size: 0x8, addend: 0x0, symName: __ZNSt3__119__to_address_helperINS_16reverse_iteratorIP16SpriteDefinitionEEvE6__callB8ue170006ERKS4_, symObjAddr: 0x6304, symBinAddr: 0x1000111D0, symSize: 0x38 }
  - { offsetInCU: 0x199CA, offset: 0x5CA33, size: 0x8, addend: 0x0, symName: __ZNKSt3__116reverse_iteratorIP16SpriteDefinitionEptB8ue170006Ev, symObjAddr: 0x633C, symBinAddr: 0x100011208, symSize: 0x24 }
  - { offsetInCU: 0x199F0, offset: 0x5CA59, size: 0x8, addend: 0x0, symName: __ZNSt3__128__exception_guard_exceptionsINS_29_AllocatorDestroyRangeReverseINS_9allocatorI16SpriteDefinitionEENS_16reverse_iteratorIPS3_EEEEED2B8ue170006Ev, symObjAddr: 0x6360, symBinAddr: 0x10001122C, symSize: 0x50 }
  - { offsetInCU: 0x19A1A, offset: 0x5CA83, size: 0x8, addend: 0x0, symName: __ZNKSt3__129_AllocatorDestroyRangeReverseINS_9allocatorI16SpriteDefinitionEENS_16reverse_iteratorIPS2_EEEclB8ue170006Ev, symObjAddr: 0x63B0, symBinAddr: 0x10001127C, symSize: 0xB4 }
  - { offsetInCU: 0x19A41, offset: 0x5CAAA, size: 0x8, addend: 0x0, symName: __ZNSt3__116reverse_iteratorINS0_IP16SpriteDefinitionEEEC1B8ue170006ES3_, symObjAddr: 0x64D4, symBinAddr: 0x1000113A0, symSize: 0x3C }
  - { offsetInCU: 0x19A79, offset: 0x5CAE2, size: 0x8, addend: 0x0, symName: __ZNSt3__116reverse_iteratorINS0_IP16SpriteDefinitionEEEppB8ue170006Ev, symObjAddr: 0x6594, symBinAddr: 0x100011460, symSize: 0x30 }
  - { offsetInCU: 0x19A9F, offset: 0x5CB08, size: 0x8, addend: 0x0, symName: __ZNKSt3__116reverse_iteratorINS0_IP16SpriteDefinitionEEE4baseB8ue170006Ev, symObjAddr: 0x65C4, symBinAddr: 0x100011490, symSize: 0x24 }
  - { offsetInCU: 0x19ACA, offset: 0x5CB33, size: 0x8, addend: 0x0, symName: __ZNSt3__119__to_address_helperINS_16reverse_iteratorINS1_IP16SpriteDefinitionEEEEvE6__callB8ue170006ERKS5_, symObjAddr: 0x65E8, symBinAddr: 0x1000114B4, symSize: 0x38 }
  - { offsetInCU: 0x19AED, offset: 0x5CB56, size: 0x8, addend: 0x0, symName: __ZNKSt3__116reverse_iteratorINS0_IP16SpriteDefinitionEEEptB8ue170006Ev, symObjAddr: 0x6620, symBinAddr: 0x1000114EC, symSize: 0x24 }
  - { offsetInCU: 0x19B13, offset: 0x5CB7C, size: 0x8, addend: 0x0, symName: __ZNKSt3__116reverse_iteratorINS0_IP16SpriteDefinitionEEEdeB8ue170006Ev, symObjAddr: 0x6644, symBinAddr: 0x100011510, symSize: 0x34 }
  - { offsetInCU: 0x19B48, offset: 0x5CBB1, size: 0x8, addend: 0x0, symName: __ZNSt3__116reverse_iteratorIP16SpriteDefinitionEmmB8ue170006Ev, symObjAddr: 0x6678, symBinAddr: 0x100011544, symSize: 0x20 }
  - { offsetInCU: 0x19B6E, offset: 0x5CBD7, size: 0x8, addend: 0x0, symName: __ZNSt3__116reverse_iteratorINS0_IP16SpriteDefinitionEEEC2B8ue170006ES3_, symObjAddr: 0x6698, symBinAddr: 0x100011564, symSize: 0x2C }
  - { offsetInCU: 0x19BA6, offset: 0x5CC0F, size: 0x8, addend: 0x0, symName: __ZNSt3__116reverse_iteratorIP16SpriteDefinitionEC2B8ue170006ES2_, symObjAddr: 0x66C4, symBinAddr: 0x100011590, symSize: 0x28 }
  - { offsetInCU: 0x19BDE, offset: 0x5CC47, size: 0x8, addend: 0x0, symName: __ZNSt3__114__split_bufferI16SpriteDefinitionRNS_9allocatorIS1_EEED2Ev, symObjAddr: 0x66EC, symBinAddr: 0x1000115B8, symSize: 0x8C }
  - { offsetInCU: 0x19C0A, offset: 0x5CC73, size: 0x8, addend: 0x0, symName: __ZNSt3__114__split_bufferI16SpriteDefinitionRNS_9allocatorIS1_EEE5clearB8ue170006Ev, symObjAddr: 0x6778, symBinAddr: 0x100011644, symSize: 0x28 }
  - { offsetInCU: 0x19C30, offset: 0x5CC99, size: 0x8, addend: 0x0, symName: __ZNKSt3__114__split_bufferI16SpriteDefinitionRNS_9allocatorIS1_EEE8capacityB8ue170006Ev, symObjAddr: 0x67A0, symBinAddr: 0x10001166C, symSize: 0x40 }
  - { offsetInCU: 0x19C56, offset: 0x5CCBF, size: 0x8, addend: 0x0, symName: __ZNSt3__114__split_bufferI16SpriteDefinitionRNS_9allocatorIS1_EEE17__destruct_at_endB8ue170006EPS1_, symObjAddr: 0x67E0, symBinAddr: 0x1000116AC, symSize: 0x2C }
  - { offsetInCU: 0x19C8A, offset: 0x5CCF3, size: 0x8, addend: 0x0, symName: __ZNSt3__114__split_bufferI16SpriteDefinitionRNS_9allocatorIS1_EEE17__destruct_at_endB8ue170006EPS1_NS_17integral_constantIbLb0EEE, symObjAddr: 0x680C, symBinAddr: 0x1000116D8, symSize: 0x80 }
  - { offsetInCU: 0x19CCB, offset: 0x5CD34, size: 0x8, addend: 0x0, symName: __ZNKSt3__114__split_bufferI16SpriteDefinitionRNS_9allocatorIS1_EEE9__end_capB8ue170006Ev, symObjAddr: 0x688C, symBinAddr: 0x100011758, symSize: 0x28 }
  - { offsetInCU: 0x19CF1, offset: 0x5CD5A, size: 0x8, addend: 0x0, symName: __ZNKSt3__117__compressed_pairIP16SpriteDefinitionRNS_9allocatorIS1_EEE5firstB8ue170006Ev, symObjAddr: 0x68B4, symBinAddr: 0x100011780, symSize: 0x24 }
  - { offsetInCU: 0x19D17, offset: 0x5CD80, size: 0x8, addend: 0x0, symName: __ZNSt3__16vectorI16SpriteDefinitionNS_9allocatorIS1_EEEC2ERKS4_, symObjAddr: 0x68D8, symBinAddr: 0x1000117A4, symSize: 0x94 }
  - { offsetInCU: 0x19D52, offset: 0x5CDBB, size: 0x8, addend: 0x0, symName: __ZNSt3__116allocator_traitsINS_9allocatorI16SpriteDefinitionEEE37select_on_container_copy_constructionB8ue170006IS3_vvEES3_RKS3_, symObjAddr: 0x696C, symBinAddr: 0x100011838, symSize: 0x10 }
  - { offsetInCU: 0x19D86, offset: 0x5CDEF, size: 0x8, addend: 0x0, symName: __ZNSt3__117__compressed_pairIP16SpriteDefinitionNS_9allocatorIS1_EEEC1B8ue170006IDnS4_EEOT_OT0_, symObjAddr: 0x697C, symBinAddr: 0x100011848, symSize: 0x3C }
  - { offsetInCU: 0x19DDE, offset: 0x5CE47, size: 0x8, addend: 0x0, symName: __ZNSt3__16vectorI16SpriteDefinitionNS_9allocatorIS1_EEE16__init_with_sizeB8ue170006IPS1_S6_EEvT_T0_m, symObjAddr: 0x69B8, symBinAddr: 0x100011884, symSize: 0xB8 }
  - { offsetInCU: 0x19E52, offset: 0x5CEBB, size: 0x8, addend: 0x0, symName: __ZNSt3__117__compressed_pairIP16SpriteDefinitionNS_9allocatorIS1_EEEC2B8ue170006IDnS4_EEOT_OT0_, symObjAddr: 0x6A70, symBinAddr: 0x10001193C, symSize: 0x44 }
  - { offsetInCU: 0x19EAA, offset: 0x5CF13, size: 0x8, addend: 0x0, symName: __ZNSt3__122__compressed_pair_elemINS_9allocatorI16SpriteDefinitionEELi1ELb1EEC2B8ue170006IS3_vEEOT_, symObjAddr: 0x6AB4, symBinAddr: 0x100011980, symSize: 0x18 }
  - { offsetInCU: 0x19EEC, offset: 0x5CF55, size: 0x8, addend: 0x0, symName: __ZNSt3__16vectorI16SpriteDefinitionNS_9allocatorIS1_EEE11__vallocateB8ue170006Em, symObjAddr: 0x6B0C, symBinAddr: 0x1000119D8, symSize: 0xB4 }
  - { offsetInCU: 0x19F30, offset: 0x5CF99, size: 0x8, addend: 0x0, symName: __ZNSt3__16vectorI16SpriteDefinitionNS_9allocatorIS1_EEE18__construct_at_endIPS1_S6_EEvT_T0_m, symObjAddr: 0x6BC0, symBinAddr: 0x100011A8C, symSize: 0x8C }
  - { offsetInCU: 0x19FA6, offset: 0x5D00F, size: 0x8, addend: 0x0, symName: __ZNSt3__128__exception_guard_exceptionsINS_6vectorI16SpriteDefinitionNS_9allocatorIS2_EEE16__destroy_vectorEE10__completeB8ue170006Ev, symObjAddr: 0x6C4C, symBinAddr: 0x100011B18, symSize: 0x1C }
  - { offsetInCU: 0x19FCC, offset: 0x5D035, size: 0x8, addend: 0x0, symName: __ZNSt3__128__exception_guard_exceptionsINS_6vectorI16SpriteDefinitionNS_9allocatorIS2_EEE16__destroy_vectorEED1B8ue170006Ev, symObjAddr: 0x6C68, symBinAddr: 0x100011B34, symSize: 0x2C }
  - { offsetInCU: 0x19FF6, offset: 0x5D05F, size: 0x8, addend: 0x0, symName: __ZNSt3__128__exception_guard_exceptionsINS_6vectorI16SpriteDefinitionNS_9allocatorIS2_EEE16__destroy_vectorEEC1B8ue170006ES6_, symObjAddr: 0x6C94, symBinAddr: 0x100011B60, symSize: 0x34 }
  - { offsetInCU: 0x1A02E, offset: 0x5D097, size: 0x8, addend: 0x0, symName: __ZNSt3__128__exception_guard_exceptionsINS_6vectorI16SpriteDefinitionNS_9allocatorIS2_EEE16__destroy_vectorEEC2B8ue170006ES6_, symObjAddr: 0x6CC8, symBinAddr: 0x100011B94, symSize: 0x24 }
  - { offsetInCU: 0x1A084, offset: 0x5D0ED, size: 0x8, addend: 0x0, symName: __ZNSt3__14pairIP16SpriteDefinitionS2_EC1B8ue170006IS2_S2_LPv0EEEOT_OT0_, symObjAddr: 0x6F58, symBinAddr: 0x100011E24, symSize: 0x3C }
  - { offsetInCU: 0x1A0E3, offset: 0x5D14C, size: 0x8, addend: 0x0, symName: __ZNSt3__14pairIP16SpriteDefinitionS2_EC2B8ue170006IS2_S2_LPv0EEEOT_OT0_, symObjAddr: 0x6F94, symBinAddr: 0x100011E60, symSize: 0x34 }
  - { offsetInCU: 0x1A142, offset: 0x5D1AB, size: 0x8, addend: 0x0, symName: __ZNSt3__129_AllocatorDestroyRangeReverseINS_9allocatorI16SpriteDefinitionEEPS2_EC1B8ue170006ERS3_RS4_S7_, symObjAddr: 0x7014, symBinAddr: 0x100011EE0, symSize: 0x44 }
  - { offsetInCU: 0x1A199, offset: 0x5D202, size: 0x8, addend: 0x0, symName: __ZNSt3__116allocator_traitsINS_9allocatorI16SpriteDefinitionEEE9constructB8ue170006IS2_JRS2_EvEEvRS3_PT_DpOT0_, symObjAddr: 0x7058, symBinAddr: 0x100011F24, symSize: 0x34 }
  - { offsetInCU: 0x1A1F0, offset: 0x5D259, size: 0x8, addend: 0x0, symName: __ZNSt3__128__exception_guard_exceptionsINS_29_AllocatorDestroyRangeReverseINS_9allocatorI16SpriteDefinitionEEPS3_EEE10__completeB8ue170006Ev, symObjAddr: 0x708C, symBinAddr: 0x100011F58, symSize: 0x1C }
  - { offsetInCU: 0x1A216, offset: 0x5D27F, size: 0x8, addend: 0x0, symName: __ZNSt3__128__exception_guard_exceptionsINS_29_AllocatorDestroyRangeReverseINS_9allocatorI16SpriteDefinitionEEPS3_EEED1B8ue170006Ev, symObjAddr: 0x70A8, symBinAddr: 0x100011F74, symSize: 0x2C }
  - { offsetInCU: 0x1A240, offset: 0x5D2A9, size: 0x8, addend: 0x0, symName: __ZNSt3__128__exception_guard_exceptionsINS_29_AllocatorDestroyRangeReverseINS_9allocatorI16SpriteDefinitionEEPS3_EEEC1B8ue170006ES6_, symObjAddr: 0x70D4, symBinAddr: 0x100011FA0, symSize: 0x34 }
  - { offsetInCU: 0x1A279, offset: 0x5D2E2, size: 0x8, addend: 0x0, symName: __ZNSt3__128__exception_guard_exceptionsINS_29_AllocatorDestroyRangeReverseINS_9allocatorI16SpriteDefinitionEEPS3_EEEC2B8ue170006ES6_, symObjAddr: 0x7108, symBinAddr: 0x100011FD4, symSize: 0x30 }
  - { offsetInCU: 0x1A2B2, offset: 0x5D31B, size: 0x8, addend: 0x0, symName: __ZNSt3__129_AllocatorDestroyRangeReverseINS_9allocatorI16SpriteDefinitionEEPS2_EC2B8ue170006ERS3_RS4_S7_, symObjAddr: 0x7138, symBinAddr: 0x100012004, symSize: 0x38 }
  - { offsetInCU: 0x1A309, offset: 0x5D372, size: 0x8, addend: 0x0, symName: __ZNSt3__19allocatorI16SpriteDefinitionE9constructB8ue170006IS1_JRS1_EEEvPT_DpOT0_, symObjAddr: 0x7170, symBinAddr: 0x10001203C, symSize: 0x30 }
  - { offsetInCU: 0x1A35F, offset: 0x5D3C8, size: 0x8, addend: 0x0, symName: __ZNSt3__128__exception_guard_exceptionsINS_29_AllocatorDestroyRangeReverseINS_9allocatorI16SpriteDefinitionEEPS3_EEED2B8ue170006Ev, symObjAddr: 0x71A0, symBinAddr: 0x10001206C, symSize: 0x50 }
  - { offsetInCU: 0x1A389, offset: 0x5D3F2, size: 0x8, addend: 0x0, symName: __ZNKSt3__129_AllocatorDestroyRangeReverseINS_9allocatorI16SpriteDefinitionEEPS2_EclB8ue170006Ev, symObjAddr: 0x71F0, symBinAddr: 0x1000120BC, symSize: 0x68 }
  - { offsetInCU: 0x1A3AF, offset: 0x5D418, size: 0x8, addend: 0x0, symName: __ZNSt3__118__unwrap_iter_implIP16SpriteDefinitionLb1EE8__unwrapB8ue170006ES2_, symObjAddr: 0x72C8, symBinAddr: 0x100012194, symSize: 0x24 }
  - { offsetInCU: 0x1A3D2, offset: 0x5D43B, size: 0x8, addend: 0x0, symName: __ZNSt3__118__unwrap_iter_implIP16SpriteDefinitionLb1EE8__rewrapB8ue170006ES2_S2_, symObjAddr: 0x72EC, symBinAddr: 0x1000121B8, symSize: 0x58 }
  - { offsetInCU: 0x1A403, offset: 0x5D46C, size: 0x8, addend: 0x0, symName: __ZNSt3__128__exception_guard_exceptionsINS_6vectorI16SpriteDefinitionNS_9allocatorIS2_EEE16__destroy_vectorEED2B8ue170006Ev, symObjAddr: 0x7344, symBinAddr: 0x100012210, symSize: 0x48 }
  - { offsetInCU: 0x1A42D, offset: 0x5D496, size: 0x8, addend: 0x0, symName: __ZNSt3__13mapINS_12basic_stringIcNS_11char_traitsIcEENS_9allocatorIcEEEES6_NS_4lessIS6_EENS4_INS_4pairIKS6_S6_EEEEEC2B8ue170006ERKSD_, symObjAddr: 0x738C, symBinAddr: 0x100012258, symSize: 0x88 }
  - { offsetInCU: 0x1A466, offset: 0x5D4CF, size: 0x8, addend: 0x0, symName: __ZNSt3__16__treeINS_12__value_typeINS_12basic_stringIcNS_11char_traitsIcEENS_9allocatorIcEEEES7_EENS_19__map_value_compareIS7_S8_NS_4lessIS7_EELb1EEENS5_IS8_EEEC1ERKSE_, symObjAddr: 0x7414, symBinAddr: 0x1000122E0, symSize: 0x34 }
  - { offsetInCU: 0x1A4A1, offset: 0x5D50A, size: 0x8, addend: 0x0, symName: __ZNSt3__13mapINS_12basic_stringIcNS_11char_traitsIcEENS_9allocatorIcEEEES6_NS_4lessIS6_EENS4_INS_4pairIKS6_S6_EEEEE6insertB8ue170006INS_20__map_const_iteratorINS_21__tree_const_iteratorINS_12__value_typeIS6_S6_EEPNS_11__tree_nodeISI_PvEElEEEEEEvT_SP_, symObjAddr: 0x7448, symBinAddr: 0x100012314, symSize: 0x8C }
  - { offsetInCU: 0x1A50B, offset: 0x5D574, size: 0x8, addend: 0x0, symName: __ZNKSt3__13mapINS_12basic_stringIcNS_11char_traitsIcEENS_9allocatorIcEEEES6_NS_4lessIS6_EENS4_INS_4pairIKS6_S6_EEEEE5beginB8ue170006Ev, symObjAddr: 0x74D4, symBinAddr: 0x1000123A0, symSize: 0x38 }
  - { offsetInCU: 0x1A531, offset: 0x5D59A, size: 0x8, addend: 0x0, symName: __ZNSt3__16__treeINS_12__value_typeINS_12basic_stringIcNS_11char_traitsIcEENS_9allocatorIcEEEES7_EENS_19__map_value_compareIS7_S8_NS_4lessIS7_EELb1EEENS5_IS8_EEEC2ERKSE_, symObjAddr: 0x750C, symBinAddr: 0x1000123D8, symSize: 0x9C }
  - { offsetInCU: 0x1A576, offset: 0x5D5DF, size: 0x8, addend: 0x0, symName: __ZNSt3__116allocator_traitsINS_9allocatorINS_11__tree_nodeINS_12__value_typeINS_12basic_stringIcNS_11char_traitsIcEENS1_IcEEEES8_EEPvEEEEE37select_on_container_copy_constructionB8ue170006ISC_vvEESC_RKSC_, symObjAddr: 0x75A8, symBinAddr: 0x100012474, symSize: 0x10 }
  - { offsetInCU: 0x1A5A5, offset: 0x5D60E, size: 0x8, addend: 0x0, symName: __ZNKSt3__16__treeINS_12__value_typeINS_12basic_stringIcNS_11char_traitsIcEENS_9allocatorIcEEEES7_EENS_19__map_value_compareIS7_S8_NS_4lessIS7_EELb1EEENS5_IS8_EEE12__node_allocB8ue170006Ev, symObjAddr: 0x75B8, symBinAddr: 0x100012484, symSize: 0x28 }
  - { offsetInCU: 0x1A5D0, offset: 0x5D639, size: 0x8, addend: 0x0, symName: __ZNSt3__117__compressed_pairINS_15__tree_end_nodeIPNS_16__tree_node_baseIPvEEEENS_9allocatorINS_11__tree_nodeINS_12__value_typeINS_12basic_stringIcNS_11char_traitsIcEENS7_IcEEEESE_EES3_EEEEEC1B8ue170006INS_18__default_init_tagESH_EEOT_OT0_, symObjAddr: 0x75E0, symBinAddr: 0x1000124AC, symSize: 0x3C }
  - { offsetInCU: 0x1A628, offset: 0x5D691, size: 0x8, addend: 0x0, symName: __ZNKSt3__16__treeINS_12__value_typeINS_12basic_stringIcNS_11char_traitsIcEENS_9allocatorIcEEEES7_EENS_19__map_value_compareIS7_S8_NS_4lessIS7_EELb1EEENS5_IS8_EEE10value_compB8ue170006Ev, symObjAddr: 0x761C, symBinAddr: 0x1000124E8, symSize: 0x28 }
  - { offsetInCU: 0x1A64E, offset: 0x5D6B7, size: 0x8, addend: 0x0, symName: __ZNKSt3__117__compressed_pairINS_15__tree_end_nodeIPNS_16__tree_node_baseIPvEEEENS_9allocatorINS_11__tree_nodeINS_12__value_typeINS_12basic_stringIcNS_11char_traitsIcEENS7_IcEEEESE_EES3_EEEEE6secondB8ue170006Ev, symObjAddr: 0x7644, symBinAddr: 0x100012510, symSize: 0x24 }
  - { offsetInCU: 0x1A674, offset: 0x5D6DD, size: 0x8, addend: 0x0, symName: __ZNKSt3__122__compressed_pair_elemINS_9allocatorINS_11__tree_nodeINS_12__value_typeINS_12basic_stringIcNS_11char_traitsIcEENS1_IcEEEES8_EEPvEEEELi1ELb1EE5__getB8ue170006Ev, symObjAddr: 0x7668, symBinAddr: 0x100012534, symSize: 0x14 }
  - { offsetInCU: 0x1A69A, offset: 0x5D703, size: 0x8, addend: 0x0, symName: __ZNSt3__117__compressed_pairINS_15__tree_end_nodeIPNS_16__tree_node_baseIPvEEEENS_9allocatorINS_11__tree_nodeINS_12__value_typeINS_12basic_stringIcNS_11char_traitsIcEENS7_IcEEEESE_EES3_EEEEEC2B8ue170006INS_18__default_init_tagESH_EEOT_OT0_, symObjAddr: 0x767C, symBinAddr: 0x100012548, symSize: 0x40 }
  - { offsetInCU: 0x1A6F2, offset: 0x5D75B, size: 0x8, addend: 0x0, symName: __ZNSt3__122__compressed_pair_elemINS_15__tree_end_nodeIPNS_16__tree_node_baseIPvEEEELi0ELb0EEC2B8ue170006ENS_18__default_init_tagE, symObjAddr: 0x76BC, symBinAddr: 0x100012588, symSize: 0x2C }
  - { offsetInCU: 0x1A727, offset: 0x5D790, size: 0x8, addend: 0x0, symName: __ZNSt3__122__compressed_pair_elemINS_9allocatorINS_11__tree_nodeINS_12__value_typeINS_12basic_stringIcNS_11char_traitsIcEENS1_IcEEEES8_EEPvEEEELi1ELb1EEC2B8ue170006ISC_vEEOT_, symObjAddr: 0x76E8, symBinAddr: 0x1000125B4, symSize: 0x18 }
  - { offsetInCU: 0x1A769, offset: 0x5D7D2, size: 0x8, addend: 0x0, symName: __ZNKSt3__117__compressed_pairImNS_19__map_value_compareINS_12basic_stringIcNS_11char_traitsIcEENS_9allocatorIcEEEENS_12__value_typeIS7_S7_EENS_4lessIS7_EELb1EEEE6secondB8ue170006Ev, symObjAddr: 0x7700, symBinAddr: 0x1000125CC, symSize: 0x24 }
  - { offsetInCU: 0x1A78F, offset: 0x5D7F8, size: 0x8, addend: 0x0, symName: __ZNKSt3__122__compressed_pair_elemINS_19__map_value_compareINS_12basic_stringIcNS_11char_traitsIcEENS_9allocatorIcEEEENS_12__value_typeIS7_S7_EENS_4lessIS7_EELb1EEELi1ELb1EE5__getB8ue170006Ev, symObjAddr: 0x7724, symBinAddr: 0x1000125F0, symSize: 0x14 }
  - { offsetInCU: 0x1A7B5, offset: 0x5D81E, size: 0x8, addend: 0x0, symName: __ZNKSt3__13mapINS_12basic_stringIcNS_11char_traitsIcEENS_9allocatorIcEEEES6_NS_4lessIS6_EENS4_INS_4pairIKS6_S6_EEEEE4cendB8ue170006Ev, symObjAddr: 0x7738, symBinAddr: 0x100012604, symSize: 0x2C }
  - { offsetInCU: 0x1A7DB, offset: 0x5D844, size: 0x8, addend: 0x0, symName: __ZNSt3__13mapINS_12basic_stringIcNS_11char_traitsIcEENS_9allocatorIcEEEES6_NS_4lessIS6_EENS4_INS_4pairIKS6_S6_EEEEE6insertB8ue170006ENS_20__map_const_iteratorINS_21__tree_const_iteratorINS_12__value_typeIS6_S6_EEPNS_11__tree_nodeISH_PvEElEEEERKSB_, symObjAddr: 0x7764, symBinAddr: 0x100012630, symSize: 0x50 }
  - { offsetInCU: 0x1A81F, offset: 0x5D888, size: 0x8, addend: 0x0, symName: __ZNSt3__120__map_const_iteratorINS_21__tree_const_iteratorINS_12__value_typeINS_12basic_stringIcNS_11char_traitsIcEENS_9allocatorIcEEEES8_EEPNS_11__tree_nodeIS9_PvEElEEEC1B8ue170006ESE_, symObjAddr: 0x77B4, symBinAddr: 0x100012680, symSize: 0x34 }
  - { offsetInCU: 0x1A858, offset: 0x5D8C1, size: 0x8, addend: 0x0, symName: __ZNKSt3__120__map_const_iteratorINS_21__tree_const_iteratorINS_12__value_typeINS_12basic_stringIcNS_11char_traitsIcEENS_9allocatorIcEEEES8_EEPNS_11__tree_nodeIS9_PvEElEEEdeB8ue170006Ev, symObjAddr: 0x77E8, symBinAddr: 0x1000126B4, symSize: 0x28 }
  - { offsetInCU: 0x1A87E, offset: 0x5D8E7, size: 0x8, addend: 0x0, symName: __ZNSt3__120__map_const_iteratorINS_21__tree_const_iteratorINS_12__value_typeINS_12basic_stringIcNS_11char_traitsIcEENS_9allocatorIcEEEES8_EEPNS_11__tree_nodeIS9_PvEElEEEppB8ue170006Ev, symObjAddr: 0x7810, symBinAddr: 0x1000126DC, symSize: 0x2C }
  - { offsetInCU: 0x1A8A4, offset: 0x5D90D, size: 0x8, addend: 0x0, symName: __ZNSt3__16__treeINS_12__value_typeINS_12basic_stringIcNS_11char_traitsIcEENS_9allocatorIcEEEES7_EENS_19__map_value_compareIS7_S8_NS_4lessIS7_EELb1EEENS5_IS8_EEE15__insert_uniqueB8ue170006ENS_21__tree_const_iteratorIS8_PNS_11__tree_nodeIS8_PvEElEERKNS_4pairIKS7_S7_EE, symObjAddr: 0x783C, symBinAddr: 0x100012708, symSize: 0x64 }
  - { offsetInCU: 0x1A8E8, offset: 0x5D951, size: 0x8, addend: 0x0, symName: __ZNSt3__114__map_iteratorINS_15__tree_iteratorINS_12__value_typeINS_12basic_stringIcNS_11char_traitsIcEENS_9allocatorIcEEEES8_EEPNS_11__tree_nodeIS9_PvEElEEEC1B8ue170006ESE_, symObjAddr: 0x78A0, symBinAddr: 0x10001276C, symSize: 0x34 }
  - { offsetInCU: 0x1A921, offset: 0x5D98A, size: 0x8, addend: 0x0, symName: __ZNSt3__16__treeINS_12__value_typeINS_12basic_stringIcNS_11char_traitsIcEENS_9allocatorIcEEEES7_EENS_19__map_value_compareIS7_S8_NS_4lessIS7_EELb1EEENS5_IS8_EEE30__emplace_hint_unique_key_argsIS7_JRKNS_4pairIKS7_S7_EEEEENSG_INS_15__tree_iteratorIS8_PNS_11__tree_nodeIS8_PvEElEEbEENS_21__tree_const_iteratorIS8_SP_lEERKT_DpOT0_, symObjAddr: 0x78D4, symBinAddr: 0x1000127A0, symSize: 0x104 }
  - { offsetInCU: 0x1A9EE, offset: 0x5DA57, size: 0x8, addend: 0x0, symName: __ZNSt3__122__tree_key_value_typesINS_12__value_typeINS_12basic_stringIcNS_11char_traitsIcEENS_9allocatorIcEEEES7_EEE9__get_keyB8ue170006IKNS_4pairIKS7_S7_EEEENS_9enable_ifIXsr17__is_same_uncvrefIT_SD_EE5valueERSC_E4typeERSG_, symObjAddr: 0x79D8, symBinAddr: 0x1000128A4, symSize: 0x14 }
  - { offsetInCU: 0x1AA1B, offset: 0x5DA84, size: 0x8, addend: 0x0, symName: __ZNSt3__16__treeINS_12__value_typeINS_12basic_stringIcNS_11char_traitsIcEENS_9allocatorIcEEEES7_EENS_19__map_value_compareIS7_S8_NS_4lessIS7_EELb1EEENS5_IS8_EEE12__find_equalIS7_EERPNS_16__tree_node_baseIPvEENS_21__tree_const_iteratorIS8_PNS_11__tree_nodeIS8_SH_EElEERPNS_15__tree_end_nodeISJ_EESK_RKT_, symObjAddr: 0x79EC, symBinAddr: 0x1000128B8, symSize: 0x304 }
  - { offsetInCU: 0x1AAC4, offset: 0x5DB2D, size: 0x8, addend: 0x0, symName: __ZNSt3__16__treeINS_12__value_typeINS_12basic_stringIcNS_11char_traitsIcEENS_9allocatorIcEEEES7_EENS_19__map_value_compareIS7_S8_NS_4lessIS7_EELb1EEENS5_IS8_EEE16__construct_nodeIJRKNS_4pairIKS7_S7_EEEEENS_10unique_ptrINS_11__tree_nodeIS8_PvEENS_22__tree_node_destructorINS5_ISO_EEEEEEDpOT_, symObjAddr: 0x7CF0, symBinAddr: 0x100012BBC, symSize: 0x110 }
  - { offsetInCU: 0x1AB25, offset: 0x5DB8E, size: 0x8, addend: 0x0, symName: __ZNSt3__16__treeINS_12__value_typeINS_12basic_stringIcNS_11char_traitsIcEENS_9allocatorIcEEEES7_EENS_19__map_value_compareIS7_S8_NS_4lessIS7_EELb1EEENS5_IS8_EEE16__insert_node_atEPNS_15__tree_end_nodeIPNS_16__tree_node_baseIPvEEEERSJ_SJ_, symObjAddr: 0x7E00, symBinAddr: 0x100012CCC, symSize: 0xCC }
  - { offsetInCU: 0x1AB7A, offset: 0x5DBE3, size: 0x8, addend: 0x0, symName: __ZNKSt3__110unique_ptrINS_11__tree_nodeINS_12__value_typeINS_12basic_stringIcNS_11char_traitsIcEENS_9allocatorIcEEEES8_EEPvEENS_22__tree_node_destructorINS6_ISB_EEEEE3getB8ue170006Ev, symObjAddr: 0x7ECC, symBinAddr: 0x100012D98, symSize: 0x28 }
  - { offsetInCU: 0x1ABA0, offset: 0x5DC09, size: 0x8, addend: 0x0, symName: __ZNSt3__110unique_ptrINS_11__tree_nodeINS_12__value_typeINS_12basic_stringIcNS_11char_traitsIcEENS_9allocatorIcEEEES8_EEPvEENS_22__tree_node_destructorINS6_ISB_EEEEE7releaseB8ue170006Ev, symObjAddr: 0x7EF4, symBinAddr: 0x100012DC0, symSize: 0x44 }
  - { offsetInCU: 0x1ABD5, offset: 0x5DC3E, size: 0x8, addend: 0x0, symName: __ZNSt3__110unique_ptrINS_11__tree_nodeINS_12__value_typeINS_12basic_stringIcNS_11char_traitsIcEENS_9allocatorIcEEEES8_EEPvEENS_22__tree_node_destructorINS6_ISB_EEEEED1B8ue170006Ev, symObjAddr: 0x7F38, symBinAddr: 0x100012E04, symSize: 0x2C }
  - { offsetInCU: 0x1ABFF, offset: 0x5DC68, size: 0x8, addend: 0x0, symName: __ZNSt3__115__tree_iteratorINS_12__value_typeINS_12basic_stringIcNS_11char_traitsIcEENS_9allocatorIcEEEES7_EEPNS_11__tree_nodeIS8_PvEElEC1B8ue170006ESC_, symObjAddr: 0x7F64, symBinAddr: 0x100012E30, symSize: 0x34 }
  - { offsetInCU: 0x1AC42, offset: 0x5DCAB, size: 0x8, addend: 0x0, symName: __ZNSt3__14pairINS_15__tree_iteratorINS_12__value_typeINS_12basic_stringIcNS_11char_traitsIcEENS_9allocatorIcEEEES8_EEPNS_11__tree_nodeIS9_PvEElEEbEC1B8ue170006ISE_RbLSB_0EEEOT_OT0_, symObjAddr: 0x7F98, symBinAddr: 0x100012E64, symSize: 0x3C }
  - { offsetInCU: 0x1ACA1, offset: 0x5DD0A, size: 0x8, addend: 0x0, symName: __ZNSt3__16__treeINS_12__value_typeINS_12basic_stringIcNS_11char_traitsIcEENS_9allocatorIcEEEES7_EENS_19__map_value_compareIS7_S8_NS_4lessIS7_EELb1EEENS5_IS8_EEE3endB8ue170006Ev, symObjAddr: 0x8004, symBinAddr: 0x100012ED0, symSize: 0x34 }
  - { offsetInCU: 0x1ACC7, offset: 0x5DD30, size: 0x8, addend: 0x0, symName: __ZNSt3__121__tree_const_iteratorINS_12__value_typeINS_12basic_stringIcNS_11char_traitsIcEENS_9allocatorIcEEEES7_EEPNS_11__tree_nodeIS8_PvEElEC1B8ue170006ENS_15__tree_iteratorIS8_SC_lEE, symObjAddr: 0x8038, symBinAddr: 0x100012F04, symSize: 0x34 }
  - { offsetInCU: 0x1AD00, offset: 0x5DD69, size: 0x8, addend: 0x0, symName: __ZNSt3__16__treeINS_12__value_typeINS_12basic_stringIcNS_11char_traitsIcEENS_9allocatorIcEEEES7_EENS_19__map_value_compareIS7_S8_NS_4lessIS7_EELb1EEENS5_IS8_EEE10value_compB8ue170006Ev, symObjAddr: 0x806C, symBinAddr: 0x100012F38, symSize: 0x28 }
  - { offsetInCU: 0x1AD26, offset: 0x5DD8F, size: 0x8, addend: 0x0, symName: __ZNKSt3__119__map_value_compareINS_12basic_stringIcNS_11char_traitsIcEENS_9allocatorIcEEEENS_12__value_typeIS6_S6_EENS_4lessIS6_EELb1EEclB8ue170006ERKS6_RKS8_, symObjAddr: 0x8094, symBinAddr: 0x100012F60, symSize: 0x50 }
  - { offsetInCU: 0x1AD6A, offset: 0x5DDD3, size: 0x8, addend: 0x0, symName: __ZNKSt3__121__tree_const_iteratorINS_12__value_typeINS_12basic_stringIcNS_11char_traitsIcEENS_9allocatorIcEEEES7_EEPNS_11__tree_nodeIS8_PvEElEdeB8ue170006Ev, symObjAddr: 0x80E4, symBinAddr: 0x100012FB0, symSize: 0x28 }
  - { offsetInCU: 0x1AD90, offset: 0x5DDF9, size: 0x8, addend: 0x0, symName: __ZNSt3__16__treeINS_12__value_typeINS_12basic_stringIcNS_11char_traitsIcEENS_9allocatorIcEEEES7_EENS_19__map_value_compareIS7_S8_NS_4lessIS7_EELb1EEENS5_IS8_EEE5beginB8ue170006Ev, symObjAddr: 0x810C, symBinAddr: 0x100012FD8, symSize: 0x34 }
  - { offsetInCU: 0x1ADB6, offset: 0x5DE1F, size: 0x8, addend: 0x0, symName: __ZNKSt3__119__map_value_compareINS_12basic_stringIcNS_11char_traitsIcEENS_9allocatorIcEEEENS_12__value_typeIS6_S6_EENS_4lessIS6_EELb1EEclB8ue170006ERKS8_RKS6_, symObjAddr: 0x8140, symBinAddr: 0x10001300C, symSize: 0x48 }
  - { offsetInCU: 0x1ADFA, offset: 0x5DE63, size: 0x8, addend: 0x0, symName: __ZNSt3__121__tree_const_iteratorINS_12__value_typeINS_12basic_stringIcNS_11char_traitsIcEENS_9allocatorIcEEEES7_EEPNS_11__tree_nodeIS8_PvEElEmmB8ue170006Ev, symObjAddr: 0x8188, symBinAddr: 0x100013054, symSize: 0x38 }
  - { offsetInCU: 0x1AE20, offset: 0x5DE89, size: 0x8, addend: 0x0, symName: __ZNSt3__16__treeINS_12__value_typeINS_12basic_stringIcNS_11char_traitsIcEENS_9allocatorIcEEEES7_EENS_19__map_value_compareIS7_S8_NS_4lessIS7_EELb1EEENS5_IS8_EEE12__find_equalIS7_EERPNS_16__tree_node_baseIPvEERPNS_15__tree_end_nodeISJ_EERKT_, symObjAddr: 0x81C0, symBinAddr: 0x10001308C, symSize: 0x184 }
  - { offsetInCU: 0x1AE8D, offset: 0x5DEF6, size: 0x8, addend: 0x0, symName: __ZNKSt3__121__tree_const_iteratorINS_12__value_typeINS_12basic_stringIcNS_11char_traitsIcEENS_9allocatorIcEEEES7_EEPNS_11__tree_nodeIS8_PvEElE8__get_npB8ue170006Ev, symObjAddr: 0x8380, symBinAddr: 0x10001324C, symSize: 0x18 }
  - { offsetInCU: 0x1AEB3, offset: 0x5DF1C, size: 0x8, addend: 0x0, symName: __ZNSt3__115__tree_iteratorINS_12__value_typeINS_12basic_stringIcNS_11char_traitsIcEENS_9allocatorIcEEEES7_EEPNS_11__tree_nodeIS8_PvEElEC1B8ue170006EPNS_15__tree_end_nodeIPNS_16__tree_node_baseISA_EEEE, symObjAddr: 0x8398, symBinAddr: 0x100013264, symSize: 0x34 }
  - { offsetInCU: 0x1AEEC, offset: 0x5DF55, size: 0x8, addend: 0x0, symName: __ZNSt3__115__tree_iteratorINS_12__value_typeINS_12basic_stringIcNS_11char_traitsIcEENS_9allocatorIcEEEES7_EEPNS_11__tree_nodeIS8_PvEElEC2B8ue170006EPNS_15__tree_end_nodeIPNS_16__tree_node_baseISA_EEEE, symObjAddr: 0x83CC, symBinAddr: 0x100013298, symSize: 0x20 }
  - { offsetInCU: 0x1AF25, offset: 0x5DF8E, size: 0x8, addend: 0x0, symName: __ZNSt3__121__tree_const_iteratorINS_12__value_typeINS_12basic_stringIcNS_11char_traitsIcEENS_9allocatorIcEEEES7_EEPNS_11__tree_nodeIS8_PvEElEC2B8ue170006ENS_15__tree_iteratorIS8_SC_lEE, symObjAddr: 0x83EC, symBinAddr: 0x1000132B8, symSize: 0x20 }
  - { offsetInCU: 0x1AF5E, offset: 0x5DFC7, size: 0x8, addend: 0x0, symName: __ZNSt3__117__compressed_pairImNS_19__map_value_compareINS_12basic_stringIcNS_11char_traitsIcEENS_9allocatorIcEEEENS_12__value_typeIS7_S7_EENS_4lessIS7_EELb1EEEE6secondB8ue170006Ev, symObjAddr: 0x840C, symBinAddr: 0x1000132D8, symSize: 0x24 }
  - { offsetInCU: 0x1AF84, offset: 0x5DFED, size: 0x8, addend: 0x0, symName: __ZNSt3__122__compressed_pair_elemINS_19__map_value_compareINS_12basic_stringIcNS_11char_traitsIcEENS_9allocatorIcEEEENS_12__value_typeIS7_S7_EENS_4lessIS7_EELb1EEELi1ELb1EE5__getB8ue170006Ev, symObjAddr: 0x8430, symBinAddr: 0x1000132FC, symSize: 0x14 }
  - { offsetInCU: 0x1AFAA, offset: 0x5E013, size: 0x8, addend: 0x0, symName: __ZNKSt3__14lessINS_12basic_stringIcNS_11char_traitsIcEENS_9allocatorIcEEEEEclB8ue170006ERKS6_S9_, symObjAddr: 0x8444, symBinAddr: 0x100013310, symSize: 0x34 }
  - { offsetInCU: 0x1AFEE, offset: 0x5E057, size: 0x8, addend: 0x0, symName: __ZNKSt3__112__value_typeINS_12basic_stringIcNS_11char_traitsIcEENS_9allocatorIcEEEES6_E11__get_valueB8ue170006Ev, symObjAddr: 0x8478, symBinAddr: 0x100013344, symSize: 0x24 }
  - { offsetInCU: 0x1B014, offset: 0x5E07D, size: 0x8, addend: 0x0, symName: __ZNKSt3__112basic_stringIcNS_11char_traitsIcEENS_9allocatorIcEEE7compareB8ue170006ERKS5_, symObjAddr: 0x84D4, symBinAddr: 0x1000133A0, symSize: 0x4C }
  - { offsetInCU: 0x1B04B, offset: 0x5E0B4, size: 0x8, addend: 0x0, symName: __ZNKSt3__112basic_stringIcNS_11char_traitsIcEENS_9allocatorIcEEE7compareINS_17basic_string_viewIcS2_EELi0EEEiRKT_, symObjAddr: 0x8520, symBinAddr: 0x1000133EC, symSize: 0x12C }
  - { offsetInCU: 0x1B0CF, offset: 0x5E138, size: 0x8, addend: 0x0, symName: __ZNKSt3__112basic_stringIcNS_11char_traitsIcEENS_9allocatorIcEEEcvNS_17basic_string_viewIcS2_EEB8ue170006Ev, symObjAddr: 0x864C, symBinAddr: 0x100013518, symSize: 0x50 }
  - { offsetInCU: 0x1B0F5, offset: 0x5E15E, size: 0x8, addend: 0x0, symName: __ZNSt3__111char_traitsIcE7compareB8ue170006EPKcS3_m, symObjAddr: 0x869C, symBinAddr: 0x100013568, symSize: 0x34 }
  - { offsetInCU: 0x1B134, offset: 0x5E19D, size: 0x8, addend: 0x0, symName: __ZNSt3__117basic_string_viewIcNS_11char_traitsIcEEEC1B8ue170006EPKcm, symObjAddr: 0x86D0, symBinAddr: 0x10001359C, symSize: 0x3C }
  - { offsetInCU: 0x1B17C, offset: 0x5E1E5, size: 0x8, addend: 0x0, symName: __ZNSt3__117basic_string_viewIcNS_11char_traitsIcEEEC2B8ue170006EPKcm, symObjAddr: 0x870C, symBinAddr: 0x1000135D8, symSize: 0x2C }
  - { offsetInCU: 0x1B1C4, offset: 0x5E22D, size: 0x8, addend: 0x0, symName: __ZNKSt3__116__tree_node_baseIPvE15__parent_unsafeB8ue170006Ev, symObjAddr: 0x8880, symBinAddr: 0x10001374C, symSize: 0x18 }
  - { offsetInCU: 0x1B1EA, offset: 0x5E253, size: 0x8, addend: 0x0, symName: __ZNKSt3__16__treeINS_12__value_typeINS_12basic_stringIcNS_11char_traitsIcEENS_9allocatorIcEEEES7_EENS_19__map_value_compareIS7_S8_NS_4lessIS7_EELb1EEENS5_IS8_EEE10__root_ptrB8ue170006Ev, symObjAddr: 0x8898, symBinAddr: 0x100013764, symSize: 0x24 }
  - { offsetInCU: 0x1B210, offset: 0x5E279, size: 0x8, addend: 0x0, symName: __ZNSt3__121__tree_const_iteratorINS_12__value_typeINS_12basic_stringIcNS_11char_traitsIcEENS_9allocatorIcEEEES7_EEPNS_11__tree_nodeIS8_PvEElEppB8ue170006Ev, symObjAddr: 0x89AC, symBinAddr: 0x100013878, symSize: 0x38 }
  - { offsetInCU: 0x1B236, offset: 0x5E29F, size: 0x8, addend: 0x0, symName: __ZNSt3__116allocator_traitsINS_9allocatorINS_11__tree_nodeINS_12__value_typeINS_12basic_stringIcNS_11char_traitsIcEENS1_IcEEEES8_EEPvEEEEE8allocateB8ue170006ERSC_m, symObjAddr: 0x8AA4, symBinAddr: 0x100013970, symSize: 0x2C }
  - { offsetInCU: 0x1B269, offset: 0x5E2D2, size: 0x8, addend: 0x0, symName: __ZNSt3__122__tree_node_destructorINS_9allocatorINS_11__tree_nodeINS_12__value_typeINS_12basic_stringIcNS_11char_traitsIcEENS1_IcEEEES8_EEPvEEEEEC1B8ue170006ERSC_b, symObjAddr: 0x8AD0, symBinAddr: 0x10001399C, symSize: 0x48 }
  - { offsetInCU: 0x1B2B6, offset: 0x5E31F, size: 0x8, addend: 0x0, symName: __ZNSt3__110unique_ptrINS_11__tree_nodeINS_12__value_typeINS_12basic_stringIcNS_11char_traitsIcEENS_9allocatorIcEEEES8_EEPvEENS_22__tree_node_destructorINS6_ISB_EEEEEC1B8ue170006ILb1EvEEPSB_NS_16__dependent_typeINS_27__unique_ptr_deleter_sfinaeISE_EEXT_EE20__good_rval_ref_typeE, symObjAddr: 0x8B18, symBinAddr: 0x1000139E4, symSize: 0x3C }
  - { offsetInCU: 0x1B307, offset: 0x5E370, size: 0x8, addend: 0x0, symName: __ZNSt3__116allocator_traitsINS_9allocatorINS_11__tree_nodeINS_12__value_typeINS_12basic_stringIcNS_11char_traitsIcEENS1_IcEEEES8_EEPvEEEEE9constructB8ue170006INS_4pairIKS8_S8_EEJRKSH_EvEEvRSC_PT_DpOT0_, symObjAddr: 0x8B54, symBinAddr: 0x100013A20, symSize: 0x34 }
  - { offsetInCU: 0x1B35E, offset: 0x5E3C7, size: 0x8, addend: 0x0, symName: __ZNKSt3__110unique_ptrINS_11__tree_nodeINS_12__value_typeINS_12basic_stringIcNS_11char_traitsIcEENS_9allocatorIcEEEES8_EEPvEENS_22__tree_node_destructorINS6_ISB_EEEEEptB8ue170006Ev, symObjAddr: 0x8B88, symBinAddr: 0x100013A54, symSize: 0x28 }
  - { offsetInCU: 0x1B384, offset: 0x5E3ED, size: 0x8, addend: 0x0, symName: __ZNSt3__110unique_ptrINS_11__tree_nodeINS_12__value_typeINS_12basic_stringIcNS_11char_traitsIcEENS_9allocatorIcEEEES8_EEPvEENS_22__tree_node_destructorINS6_ISB_EEEEE11get_deleterB8ue170006Ev, symObjAddr: 0x8BB0, symBinAddr: 0x100013A7C, symSize: 0x24 }
  - { offsetInCU: 0x1B3AA, offset: 0x5E413, size: 0x8, addend: 0x0, symName: __ZNSt3__19allocatorINS_11__tree_nodeINS_12__value_typeINS_12basic_stringIcNS_11char_traitsIcEENS0_IcEEEES7_EEPvEEE8allocateB8ue170006Em, symObjAddr: 0x8BD4, symBinAddr: 0x100013AA0, symSize: 0x5C }
  - { offsetInCU: 0x1B3DE, offset: 0x5E447, size: 0x8, addend: 0x0, symName: __ZNSt3__116allocator_traitsINS_9allocatorINS_11__tree_nodeINS_12__value_typeINS_12basic_stringIcNS_11char_traitsIcEENS1_IcEEEES8_EEPvEEEEE8max_sizeB8ue170006ISC_vEEmRKSC_, symObjAddr: 0x8C30, symBinAddr: 0x100013AFC, symSize: 0x24 }
  - { offsetInCU: 0x1B40C, offset: 0x5E475, size: 0x8, addend: 0x0, symName: __ZNKSt3__19allocatorINS_11__tree_nodeINS_12__value_typeINS_12basic_stringIcNS_11char_traitsIcEENS0_IcEEEES7_EEPvEEE8max_sizeB8ue170006Ev, symObjAddr: 0x8C54, symBinAddr: 0x100013B20, symSize: 0x18 }
  - { offsetInCU: 0x1B432, offset: 0x5E49B, size: 0x8, addend: 0x0, symName: __ZNSt3__122__tree_node_destructorINS_9allocatorINS_11__tree_nodeINS_12__value_typeINS_12basic_stringIcNS_11char_traitsIcEENS1_IcEEEES8_EEPvEEEEEC2B8ue170006ERSC_b, symObjAddr: 0x8C6C, symBinAddr: 0x100013B38, symSize: 0x38 }
  - { offsetInCU: 0x1B47A, offset: 0x5E4E3, size: 0x8, addend: 0x0, symName: __ZNSt3__110unique_ptrINS_11__tree_nodeINS_12__value_typeINS_12basic_stringIcNS_11char_traitsIcEENS_9allocatorIcEEEES8_EEPvEENS_22__tree_node_destructorINS6_ISB_EEEEEC2B8ue170006ILb1EvEEPSB_NS_16__dependent_typeINS_27__unique_ptr_deleter_sfinaeISE_EEXT_EE20__good_rval_ref_typeE, symObjAddr: 0x8CA4, symBinAddr: 0x100013B70, symSize: 0x48 }
  - { offsetInCU: 0x1B4CB, offset: 0x5E534, size: 0x8, addend: 0x0, symName: __ZNSt3__117__compressed_pairIPNS_11__tree_nodeINS_12__value_typeINS_12basic_stringIcNS_11char_traitsIcEENS_9allocatorIcEEEES8_EEPvEENS_22__tree_node_destructorINS6_ISB_EEEEEC1B8ue170006IRSC_SF_EEOT_OT0_, symObjAddr: 0x8CEC, symBinAddr: 0x100013BB8, symSize: 0x3C }
  - { offsetInCU: 0x1B523, offset: 0x5E58C, size: 0x8, addend: 0x0, symName: __ZNSt3__117__compressed_pairIPNS_11__tree_nodeINS_12__value_typeINS_12basic_stringIcNS_11char_traitsIcEENS_9allocatorIcEEEES8_EEPvEENS_22__tree_node_destructorINS6_ISB_EEEEEC2B8ue170006IRSC_SF_EEOT_OT0_, symObjAddr: 0x8D28, symBinAddr: 0x100013BF4, symSize: 0x48 }
  - { offsetInCU: 0x1B57B, offset: 0x5E5E4, size: 0x8, addend: 0x0, symName: __ZNSt3__122__compressed_pair_elemIPNS_11__tree_nodeINS_12__value_typeINS_12basic_stringIcNS_11char_traitsIcEENS_9allocatorIcEEEES8_EEPvEELi0ELb0EEC2B8ue170006IRSC_vEEOT_, symObjAddr: 0x8D70, symBinAddr: 0x100013C3C, symSize: 0x24 }
  - { offsetInCU: 0x1B5BD, offset: 0x5E626, size: 0x8, addend: 0x0, symName: __ZNSt3__122__compressed_pair_elemINS_22__tree_node_destructorINS_9allocatorINS_11__tree_nodeINS_12__value_typeINS_12basic_stringIcNS_11char_traitsIcEENS2_IcEEEES9_EEPvEEEEEELi1ELb0EEC2B8ue170006ISE_vEEOT_, symObjAddr: 0x8D94, symBinAddr: 0x100013C60, symSize: 0x24 }
  - { offsetInCU: 0x1B5FF, offset: 0x5E668, size: 0x8, addend: 0x0, symName: __ZNSt3__19allocatorINS_11__tree_nodeINS_12__value_typeINS_12basic_stringIcNS_11char_traitsIcEENS0_IcEEEES7_EEPvEEE9constructB8ue170006INS_4pairIKS7_S7_EEJRKSF_EEEvPT_DpOT0_, symObjAddr: 0x8DB8, symBinAddr: 0x100013C84, symSize: 0x30 }
  - { offsetInCU: 0x1B655, offset: 0x5E6BE, size: 0x8, addend: 0x0, symName: __ZNSt3__14pairIKNS_12basic_stringIcNS_11char_traitsIcEENS_9allocatorIcEEEES6_EC1B8ue170006ERKS8_, symObjAddr: 0x8DE8, symBinAddr: 0x100013CB4, symSize: 0x34 }
  - { offsetInCU: 0x1B68A, offset: 0x5E6F3, size: 0x8, addend: 0x0, symName: __ZNSt3__14pairIKNS_12basic_stringIcNS_11char_traitsIcEENS_9allocatorIcEEEES6_EC2B8ue170006ERKS8_, symObjAddr: 0x8E1C, symBinAddr: 0x100013CE8, symSize: 0x70 }
  - { offsetInCU: 0x1B6BF, offset: 0x5E728, size: 0x8, addend: 0x0, symName: __ZNKSt3__117__compressed_pairIPNS_11__tree_nodeINS_12__value_typeINS_12basic_stringIcNS_11char_traitsIcEENS_9allocatorIcEEEES8_EEPvEENS_22__tree_node_destructorINS6_ISB_EEEEE5firstB8ue170006Ev, symObjAddr: 0x8E8C, symBinAddr: 0x100013D58, symSize: 0x24 }
  - { offsetInCU: 0x1B6E5, offset: 0x5E74E, size: 0x8, addend: 0x0, symName: __ZNKSt3__122__compressed_pair_elemIPNS_11__tree_nodeINS_12__value_typeINS_12basic_stringIcNS_11char_traitsIcEENS_9allocatorIcEEEES8_EEPvEELi0ELb0EE5__getB8ue170006Ev, symObjAddr: 0x8EB0, symBinAddr: 0x100013D7C, symSize: 0x14 }
  - { offsetInCU: 0x1B70B, offset: 0x5E774, size: 0x8, addend: 0x0, symName: __ZNSt3__117__compressed_pairIPNS_11__tree_nodeINS_12__value_typeINS_12basic_stringIcNS_11char_traitsIcEENS_9allocatorIcEEEES8_EEPvEENS_22__tree_node_destructorINS6_ISB_EEEEE6secondB8ue170006Ev, symObjAddr: 0x8EC4, symBinAddr: 0x100013D90, symSize: 0x28 }
  - { offsetInCU: 0x1B731, offset: 0x5E79A, size: 0x8, addend: 0x0, symName: __ZNSt3__122__compressed_pair_elemINS_22__tree_node_destructorINS_9allocatorINS_11__tree_nodeINS_12__value_typeINS_12basic_stringIcNS_11char_traitsIcEENS2_IcEEEES9_EEPvEEEEEELi1ELb0EE5__getB8ue170006Ev, symObjAddr: 0x8EEC, symBinAddr: 0x100013DB8, symSize: 0x14 }
  - { offsetInCU: 0x1B757, offset: 0x5E7C0, size: 0x8, addend: 0x0, symName: __ZNSt3__16__treeINS_12__value_typeINS_12basic_stringIcNS_11char_traitsIcEENS_9allocatorIcEEEES7_EENS_19__map_value_compareIS7_S8_NS_4lessIS7_EELb1EEENS5_IS8_EEE4sizeB8ue170006Ev, symObjAddr: 0x917C, symBinAddr: 0x100014048, symSize: 0x28 }
  - { offsetInCU: 0x1B77D, offset: 0x5E7E6, size: 0x8, addend: 0x0, symName: __ZNSt3__116__tree_node_baseIPvE12__set_parentB8ue170006EPS2_, symObjAddr: 0x9348, symBinAddr: 0x100014214, symSize: 0x20 }
  - { offsetInCU: 0x1B7B2, offset: 0x5E81B, size: 0x8, addend: 0x0, symName: __ZNSt3__117__compressed_pairImNS_19__map_value_compareINS_12basic_stringIcNS_11char_traitsIcEENS_9allocatorIcEEEENS_12__value_typeIS7_S7_EENS_4lessIS7_EELb1EEEE5firstB8ue170006Ev, symObjAddr: 0x9368, symBinAddr: 0x100014234, symSize: 0x24 }
  - { offsetInCU: 0x1B7D8, offset: 0x5E841, size: 0x8, addend: 0x0, symName: __ZNSt3__122__compressed_pair_elemImLi0ELb0EE5__getB8ue170006Ev, symObjAddr: 0x938C, symBinAddr: 0x100014258, symSize: 0x14 }
  - { offsetInCU: 0x1B7FE, offset: 0x5E867, size: 0x8, addend: 0x0, symName: __ZNSt3__117__compressed_pairIPNS_11__tree_nodeINS_12__value_typeINS_12basic_stringIcNS_11char_traitsIcEENS_9allocatorIcEEEES8_EEPvEENS_22__tree_node_destructorINS6_ISB_EEEEE5firstB8ue170006Ev, symObjAddr: 0x93A0, symBinAddr: 0x10001426C, symSize: 0x24 }
  - { offsetInCU: 0x1B824, offset: 0x5E88D, size: 0x8, addend: 0x0, symName: __ZNSt3__122__compressed_pair_elemIPNS_11__tree_nodeINS_12__value_typeINS_12basic_stringIcNS_11char_traitsIcEENS_9allocatorIcEEEES8_EEPvEELi0ELb0EE5__getB8ue170006Ev, symObjAddr: 0x93C4, symBinAddr: 0x100014290, symSize: 0x14 }
  - { offsetInCU: 0x1B84A, offset: 0x5E8B3, size: 0x8, addend: 0x0, symName: __ZNSt3__110unique_ptrINS_11__tree_nodeINS_12__value_typeINS_12basic_stringIcNS_11char_traitsIcEENS_9allocatorIcEEEES8_EEPvEENS_22__tree_node_destructorINS6_ISB_EEEEED2B8ue170006Ev, symObjAddr: 0x93D8, symBinAddr: 0x1000142A4, symSize: 0x30 }
  - { offsetInCU: 0x1B874, offset: 0x5E8DD, size: 0x8, addend: 0x0, symName: __ZNSt3__110unique_ptrINS_11__tree_nodeINS_12__value_typeINS_12basic_stringIcNS_11char_traitsIcEENS_9allocatorIcEEEES8_EEPvEENS_22__tree_node_destructorINS6_ISB_EEEEE5resetB8ue170006EPSB_, symObjAddr: 0x9408, symBinAddr: 0x1000142D4, symSize: 0x78 }
  - { offsetInCU: 0x1B8B8, offset: 0x5E921, size: 0x8, addend: 0x0, symName: __ZNSt3__122__tree_node_destructorINS_9allocatorINS_11__tree_nodeINS_12__value_typeINS_12basic_stringIcNS_11char_traitsIcEENS1_IcEEEES8_EEPvEEEEEclB8ue170006EPSB_, symObjAddr: 0x9480, symBinAddr: 0x10001434C, symSize: 0x94 }
  - { offsetInCU: 0x1B8ED, offset: 0x5E956, size: 0x8, addend: 0x0, symName: __ZNSt3__115__tree_iteratorINS_12__value_typeINS_12basic_stringIcNS_11char_traitsIcEENS_9allocatorIcEEEES7_EEPNS_11__tree_nodeIS8_PvEElEC2B8ue170006ESC_, symObjAddr: 0x9514, symBinAddr: 0x1000143E0, symSize: 0x20 }
  - { offsetInCU: 0x1B926, offset: 0x5E98F, size: 0x8, addend: 0x0, symName: __ZNSt3__14pairINS_15__tree_iteratorINS_12__value_typeINS_12basic_stringIcNS_11char_traitsIcEENS_9allocatorIcEEEES8_EEPNS_11__tree_nodeIS9_PvEElEEbEC2B8ue170006ISE_RbLSB_0EEEOT_OT0_, symObjAddr: 0x9534, symBinAddr: 0x100014400, symSize: 0x38 }
  - { offsetInCU: 0x1B985, offset: 0x5E9EE, size: 0x8, addend: 0x0, symName: __ZNSt3__114__map_iteratorINS_15__tree_iteratorINS_12__value_typeINS_12basic_stringIcNS_11char_traitsIcEENS_9allocatorIcEEEES8_EEPNS_11__tree_nodeIS9_PvEElEEEC2B8ue170006ESE_, symObjAddr: 0x956C, symBinAddr: 0x100014438, symSize: 0x20 }
  - { offsetInCU: 0x1B9BE, offset: 0x5EA27, size: 0x8, addend: 0x0, symName: __ZNSt3__120__map_const_iteratorINS_21__tree_const_iteratorINS_12__value_typeINS_12basic_stringIcNS_11char_traitsIcEENS_9allocatorIcEEEES8_EEPNS_11__tree_nodeIS9_PvEElEEEC2B8ue170006ESE_, symObjAddr: 0x958C, symBinAddr: 0x100014458, symSize: 0x20 }
  - { offsetInCU: 0x1B9F7, offset: 0x5EA60, size: 0x8, addend: 0x0, symName: __ZNKSt3__121__tree_const_iteratorINS_12__value_typeINS_12basic_stringIcNS_11char_traitsIcEENS_9allocatorIcEEEES7_EEPNS_11__tree_nodeIS8_PvEElEptB8ue170006Ev, symObjAddr: 0x95AC, symBinAddr: 0x100014478, symSize: 0x2C }
  - { offsetInCU: 0x1BA1D, offset: 0x5EA86, size: 0x8, addend: 0x0, symName: __ZNSt3__114pointer_traitsIPKNS_12__value_typeINS_12basic_stringIcNS_11char_traitsIcEENS_9allocatorIcEEEES7_EEE10pointer_toB8ue170006ERS9_, symObjAddr: 0x95D8, symBinAddr: 0x1000144A4, symSize: 0x14 }
  - { offsetInCU: 0x1BA40, offset: 0x5EAA9, size: 0x8, addend: 0x0, symName: __ZNKSt3__16__treeINS_12__value_typeINS_12basic_stringIcNS_11char_traitsIcEENS_9allocatorIcEEEES7_EENS_19__map_value_compareIS7_S8_NS_4lessIS7_EELb1EEENS5_IS8_EEE5beginB8ue170006Ev, symObjAddr: 0x95EC, symBinAddr: 0x1000144B8, symSize: 0x34 }
  - { offsetInCU: 0x1BA66, offset: 0x5EACF, size: 0x8, addend: 0x0, symName: __ZNKSt3__16__treeINS_12__value_typeINS_12basic_stringIcNS_11char_traitsIcEENS_9allocatorIcEEEES7_EENS_19__map_value_compareIS7_S8_NS_4lessIS7_EELb1EEENS5_IS8_EEE12__begin_nodeB8ue170006Ev, symObjAddr: 0x9620, symBinAddr: 0x1000144EC, symSize: 0x14 }
  - { offsetInCU: 0x1BA8C, offset: 0x5EAF5, size: 0x8, addend: 0x0, symName: __ZNSt3__121__tree_const_iteratorINS_12__value_typeINS_12basic_stringIcNS_11char_traitsIcEENS_9allocatorIcEEEES7_EEPNS_11__tree_nodeIS8_PvEElEC1B8ue170006EPNS_15__tree_end_nodeIPNS_16__tree_node_baseISA_EEEE, symObjAddr: 0x9634, symBinAddr: 0x100014500, symSize: 0x34 }
  - { offsetInCU: 0x1BAC5, offset: 0x5EB2E, size: 0x8, addend: 0x0, symName: __ZNSt3__121__tree_const_iteratorINS_12__value_typeINS_12basic_stringIcNS_11char_traitsIcEENS_9allocatorIcEEEES7_EEPNS_11__tree_nodeIS8_PvEElEC2B8ue170006EPNS_15__tree_end_nodeIPNS_16__tree_node_baseISA_EEEE, symObjAddr: 0x9668, symBinAddr: 0x100014534, symSize: 0x20 }
  - { offsetInCU: 0x1BB12, offset: 0x5EB7B, size: 0x8, addend: 0x0, symName: __ZNSt3__16__treeINS_12__value_typeINS_12basic_stringIcNS_11char_traitsIcEENS_9allocatorIcEEEES7_EENS_19__map_value_compareIS7_S8_NS_4lessIS7_EELb1EEENS5_IS8_EEE25__emplace_unique_key_argsIS7_JRKNS_21piecewise_construct_tENS_5tupleIJRKS7_EEENSJ_IJEEEEEENS_4pairINS_15__tree_iteratorIS8_PNS_11__tree_nodeIS8_PvEElEEbEERKT_DpOT0_, symObjAddr: 0x96E0, symBinAddr: 0x100014554, symSize: 0x100 }
  - { offsetInCU: 0x1BBE9, offset: 0x5EC52, size: 0x8, addend: 0x0, symName: __ZNKSt3__115__tree_iteratorINS_12__value_typeINS_12basic_stringIcNS_11char_traitsIcEENS_9allocatorIcEEEES7_EEPNS_11__tree_nodeIS8_PvEElEptB8ue170006Ev, symObjAddr: 0x9810, symBinAddr: 0x100014684, symSize: 0x2C }
  - { offsetInCU: 0x1BC0F, offset: 0x5EC78, size: 0x8, addend: 0x0, symName: __ZNSt3__16__treeINS_12__value_typeINS_12basic_stringIcNS_11char_traitsIcEENS_9allocatorIcEEEES7_EENS_19__map_value_compareIS7_S8_NS_4lessIS7_EELb1EEENS5_IS8_EEE16__construct_nodeIJRKNS_21piecewise_construct_tENS_5tupleIJRKS7_EEENSJ_IJEEEEEENS_10unique_ptrINS_11__tree_nodeIS8_PvEENS_22__tree_node_destructorINS5_ISR_EEEEEEDpOT_, symObjAddr: 0x983C, symBinAddr: 0x1000146B0, symSize: 0x120 }
  - { offsetInCU: 0x1BC98, offset: 0x5ED01, size: 0x8, addend: 0x0, symName: __ZNSt3__116allocator_traitsINS_9allocatorINS_11__tree_nodeINS_12__value_typeINS_12basic_stringIcNS_11char_traitsIcEENS1_IcEEEES8_EEPvEEEEE9constructB8ue170006INS_4pairIKS8_S8_EEJRKNS_21piecewise_construct_tENS_5tupleIJRSG_EEENSL_IJEEEEvEEvRSC_PT_DpOT0_, symObjAddr: 0x995C, symBinAddr: 0x1000147D0, symSize: 0x44 }
  - { offsetInCU: 0x1BD17, offset: 0x5ED80, size: 0x8, addend: 0x0, symName: __ZNSt3__19allocatorINS_11__tree_nodeINS_12__value_typeINS_12basic_stringIcNS_11char_traitsIcEENS0_IcEEEES7_EEPvEEE9constructB8ue170006INS_4pairIKS7_S7_EEJRKNS_21piecewise_construct_tENS_5tupleIJRSE_EEENSJ_IJEEEEEEvPT_DpOT0_, symObjAddr: 0x99A0, symBinAddr: 0x100014814, symSize: 0x44 }
  - { offsetInCU: 0x1BD93, offset: 0x5EDFC, size: 0x8, addend: 0x0, symName: __ZNSt3__14pairIKNS_12basic_stringIcNS_11char_traitsIcEENS_9allocatorIcEEEES6_EC1B8ue170006IJRS7_EJEEENS_21piecewise_construct_tENS_5tupleIJDpT_EEENSC_IJDpT0_EEE, symObjAddr: 0x99E4, symBinAddr: 0x100014858, symSize: 0x3C }
  - { offsetInCU: 0x1BDFA, offset: 0x5EE63, size: 0x8, addend: 0x0, symName: __ZNSt3__14pairIKNS_12basic_stringIcNS_11char_traitsIcEENS_9allocatorIcEEEES6_EC1B8ue170006IJRS7_EJEJLm0EEJEEENS_21piecewise_construct_tERNS_5tupleIJDpT_EEERNSC_IJDpT0_EEENS_15__tuple_indicesIJXspT1_EEEENSL_IJXspT2_EEEE, symObjAddr: 0x9A20, symBinAddr: 0x100014894, symSize: 0x3C }
  - { offsetInCU: 0x1BE8B, offset: 0x5EEF4, size: 0x8, addend: 0x0, symName: __ZNSt3__14pairIKNS_12basic_stringIcNS_11char_traitsIcEENS_9allocatorIcEEEES6_EC2B8ue170006IJRS7_EJEJLm0EEJEEENS_21piecewise_construct_tERNS_5tupleIJDpT_EEERNSC_IJDpT0_EEENS_15__tuple_indicesIJXspT1_EEEENSL_IJXspT2_EEEE, symObjAddr: 0x9A5C, symBinAddr: 0x1000148D0, symSize: 0x50 }
  - { offsetInCU: 0x1BF1C, offset: 0x5EF85, size: 0x8, addend: 0x0, symName: __ZNSt3__112__tuple_leafILm0ERKNS_12basic_stringIcNS_11char_traitsIcEENS_9allocatorIcEEEELb0EE3getB8ue170006Ev, symObjAddr: 0x9AD0, symBinAddr: 0x100014944, symSize: 0x18 }
  - { offsetInCU: 0x1BF42, offset: 0x5EFAB, size: 0x8, addend: 0x0, symName: __ZNSt3__15tupleIJRKNS_12basic_stringIcNS_11char_traitsIcEENS_9allocatorIcEEEEEEC1B8ue170006INS_4_AndELi0EEES8_, symObjAddr: 0x9AE8, symBinAddr: 0x10001495C, symSize: 0x34 }
  - { offsetInCU: 0x1BF8C, offset: 0x5EFF5, size: 0x8, addend: 0x0, symName: __ZNSt3__15tupleIJRKNS_12basic_stringIcNS_11char_traitsIcEENS_9allocatorIcEEEEEEC2B8ue170006INS_4_AndELi0EEES8_, symObjAddr: 0x9B1C, symBinAddr: 0x100014990, symSize: 0x34 }
  - { offsetInCU: 0x1BFD6, offset: 0x5F03F, size: 0x8, addend: 0x0, symName: __ZNSt3__112__tuple_implINS_15__tuple_indicesIJLm0EEEEJRKNS_12basic_stringIcNS_11char_traitsIcEENS_9allocatorIcEEEEEEC1B8ue170006IJLm0EEJSA_EJEJEJSA_EEENS1_IJXspT_EEEENS_13__tuple_typesIJDpT0_EEENS1_IJXspT1_EEEENSE_IJDpT2_EEEDpOT3_, symObjAddr: 0x9B50, symBinAddr: 0x1000149C4, symSize: 0x34 }
  - { offsetInCU: 0x1C06C, offset: 0x5F0D5, size: 0x8, addend: 0x0, symName: __ZNSt3__112__tuple_implINS_15__tuple_indicesIJLm0EEEEJRKNS_12basic_stringIcNS_11char_traitsIcEENS_9allocatorIcEEEEEEC2B8ue170006IJLm0EEJSA_EJEJEJSA_EEENS1_IJXspT_EEEENS_13__tuple_typesIJDpT0_EEENS1_IJXspT1_EEEENSE_IJDpT2_EEEDpOT3_, symObjAddr: 0x9B84, symBinAddr: 0x1000149F8, symSize: 0x34 }
  - { offsetInCU: 0x1C102, offset: 0x5F16B, size: 0x8, addend: 0x0, symName: __ZNSt3__112__tuple_leafILm0ERKNS_12basic_stringIcNS_11char_traitsIcEENS_9allocatorIcEEEELb0EEC2B8ue170006IS8_vEEOT_, symObjAddr: 0x9BB8, symBinAddr: 0x100014A2C, symSize: 0x20 }
  - { offsetInCU: 0x1C145, offset: 0x5F1AE, size: 0x8, addend: 0x0, symName: __ZNSt3__114pointer_traitsIPNS_12__value_typeINS_12basic_stringIcNS_11char_traitsIcEENS_9allocatorIcEEEES7_EEE10pointer_toB8ue170006ERS8_, symObjAddr: 0x9BD8, symBinAddr: 0x100014A4C, symSize: 0x14 }
  - { offsetInCU: 0x1C168, offset: 0x5F1D1, size: 0x8, addend: 0x0, symName: __ZNKSt3__115__tree_iteratorINS_12__value_typeINS_12basic_stringIcNS_11char_traitsIcEENS_9allocatorIcEEEES7_EEPNS_11__tree_nodeIS8_PvEElE8__get_npB8ue170006Ev, symObjAddr: 0x9BEC, symBinAddr: 0x100014A60, symSize: 0x18 }
  - { offsetInCU: 0x1C18E, offset: 0x5F1F7, size: 0x8, addend: 0x0, symName: __ZNKSt3__16__treeINS_12__value_typeINS_12basic_stringIcNS_11char_traitsIcEENS_9allocatorIcEEEES7_EENS_19__map_value_compareIS7_S8_NS_4lessIS7_EELb1EEENS5_IS8_EEE4findIS7_EENS_21__tree_const_iteratorIS8_PNS_11__tree_nodeIS8_PvEElEERKT_, symObjAddr: 0x9C04, symBinAddr: 0x100014A78, symSize: 0xF8 }
  - { offsetInCU: 0x1C1DD, offset: 0x5F246, size: 0x8, addend: 0x0, symName: __ZNKSt3__16__treeINS_12__value_typeINS_12basic_stringIcNS_11char_traitsIcEENS_9allocatorIcEEEES7_EENS_19__map_value_compareIS7_S8_NS_4lessIS7_EELb1EEENS5_IS8_EEE13__lower_boundIS7_EENS_21__tree_const_iteratorIS8_PNS_11__tree_nodeIS8_PvEElEERKT_SK_PNS_15__tree_end_nodeIPNS_16__tree_node_baseISI_EEEE, symObjAddr: 0x9CFC, symBinAddr: 0x100014B70, symSize: 0xA4 }
  - { offsetInCU: 0x1C23B, offset: 0x5F2A4, size: 0x8, addend: 0x0, symName: __ZNKSt3__16__treeINS_12__value_typeINS_12basic_stringIcNS_11char_traitsIcEENS_9allocatorIcEEEES7_EENS_19__map_value_compareIS7_S8_NS_4lessIS7_EELb1EEENS5_IS8_EEE3endB8ue170006Ev, symObjAddr: 0x9DD4, symBinAddr: 0x100014C48, symSize: 0x34 }
  - { offsetInCU: 0x1C261, offset: 0x5F2CA, size: 0x8, addend: 0x0, symName: __ZNSt3__114pointer_traitsIPKNS_4pairIKNS_12basic_stringIcNS_11char_traitsIcEENS_9allocatorIcEEEES7_EEE10pointer_toB8ue170006ERSA_, symObjAddr: 0x9E08, symBinAddr: 0x100014C7C, symSize: 0x14 }
  - { offsetInCU: 0x1C284, offset: 0x5F2ED, size: 0x8, addend: 0x0, symName: __ZNSt3__19allocatorIcEC1B8ue170006Ev, symObjAddr: 0x9E1C, symBinAddr: 0x100014C90, symSize: 0x2C }
  - { offsetInCU: 0x50E3, offset: 0x6456B, size: 0x8, addend: 0x0, symName: __ZNSt3__14__fs10filesystem5beginB8ue170006ENS1_18directory_iteratorE, symObjAddr: 0x480, symBinAddr: 0x1000150D4, symSize: 0x38 }
  - { offsetInCU: 0x5111, offset: 0x64599, size: 0x8, addend: 0x0, symName: __ZNSt3__14__fs10filesystem3endB8ue170006ENS1_18directory_iteratorE, symObjAddr: 0x518, symBinAddr: 0x10001516C, symSize: 0x34 }
  - { offsetInCU: 0x513C, offset: 0x645C4, size: 0x8, addend: 0x0, symName: __ZNSt3__14__fs10filesystemneB8ue170006ERKNS1_18directory_iteratorES4_, symObjAddr: 0x54C, symBinAddr: 0x1000151A0, symSize: 0x34 }
  - { offsetInCU: 0x5177, offset: 0x645FF, size: 0x8, addend: 0x0, symName: __ZNSt3__14__fs10filesystemeqB8ue170006ERKNS1_4pathES4_, symObjAddr: 0x5A4, symBinAddr: 0x1000151F8, symSize: 0x68 }
  - { offsetInCU: 0x51B4, offset: 0x6463C, size: 0x8, addend: 0x0, symName: __ZNSt3__14__fs10filesystemeqB8ue170006ERKNS1_18directory_iteratorES4_, symObjAddr: 0xF4C, symBinAddr: 0x10001588C, symSize: 0x30 }
  - { offsetInCU: 0xCDCE, offset: 0x6C256, size: 0x8, addend: 0x0, symName: __ZNSt3__111make_uniqueB8ue170006I6EntityJNS_12basic_stringIcNS_11char_traitsIcEENS_9allocatorIcEEEEEEENS_11__unique_ifIT_E15__unique_singleEDpOT0_, symObjAddr: 0x728, symBinAddr: 0x100015310, symSize: 0x6C }
  - { offsetInCU: 0xCE10, offset: 0x6C298, size: 0x8, addend: 0x0, symName: __ZNSt3__134__libcpp_atomic_refcount_incrementB8ue170006IlEET_RS1_, symObjAddr: 0xCE8, symBinAddr: 0x100015628, symSize: 0x30 }
  - { offsetInCU: 0xCE45, offset: 0x6C2CD, size: 0x8, addend: 0x0, symName: __ZNSt3__134__libcpp_atomic_refcount_decrementB8ue170006IlEET_RS1_, symObjAddr: 0xE7C, symBinAddr: 0x1000157BC, symSize: 0x30 }
  - { offsetInCU: 0xCE7A, offset: 0x6C302, size: 0x8, addend: 0x0, symName: __ZNSt3__1eqB8ue170006INS_4__fs10filesystem12__dir_streamES3_EEbRKNS_10shared_ptrIT_EERKNS4_IT0_EE, symObjAddr: 0xF7C, symBinAddr: 0x1000158BC, symSize: 0x48 }
  - { offsetInCU: 0xF97C, offset: 0x6EE04, size: 0x8, addend: 0x0, symName: __ZN13EntityManager25loadEntitiesFromDirectoryERKNSt3__112basic_stringIcNS0_11char_traitsIcEENS0_9allocatorIcEEEE, symObjAddr: 0x0, symBinAddr: 0x100014CBC, symSize: 0x3DC }
  - { offsetInCU: 0xFA10, offset: 0x6EE98, size: 0x8, addend: 0x0, symName: __ZNSt3__14__fs10filesystem18directory_iteratorC1B8ue170006ERKNS1_4pathE, symObjAddr: 0x418, symBinAddr: 0x100015098, symSize: 0x3C }
  - { offsetInCU: 0xFA48, offset: 0x6EED0, size: 0x8, addend: 0x0, symName: __ZNSt3__14__fs10filesystem18directory_iteratorC1B8ue170006ERKS2_, symObjAddr: 0x4B8, symBinAddr: 0x10001510C, symSize: 0x34 }
  - { offsetInCU: 0xFA7D, offset: 0x6EF05, size: 0x8, addend: 0x0, symName: __ZNSt3__14__fs10filesystem18directory_iteratorD1B8ue170006Ev, symObjAddr: 0x4EC, symBinAddr: 0x100015140, symSize: 0x2C }
  - { offsetInCU: 0xFAA7, offset: 0x6EF2F, size: 0x8, addend: 0x0, symName: __ZNKSt3__14__fs10filesystem18directory_iteratordeB8ue170006Ev, symObjAddr: 0x580, symBinAddr: 0x1000151D4, symSize: 0x24 }
  - { offsetInCU: 0xFACD, offset: 0x6EF55, size: 0x8, addend: 0x0, symName: __ZNKSt3__14__fs10filesystem15directory_entry4pathB8ue170006Ev, symObjAddr: 0x60C, symBinAddr: 0x100015260, symSize: 0x14 }
  - { offsetInCU: 0xFAF3, offset: 0x6EF7B, size: 0x8, addend: 0x0, symName: __ZNKSt3__14__fs10filesystem4path9extensionB8ue170006Ev, symObjAddr: 0x620, symBinAddr: 0x100015274, symSize: 0x60 }
  - { offsetInCU: 0xFB2F, offset: 0x6EFB7, size: 0x8, addend: 0x0, symName: __ZNSt3__14__fs10filesystem4pathC1B8ue170006IA5_cvEERKT_NS2_6formatE, symObjAddr: 0x680, symBinAddr: 0x1000152D4, symSize: 0x3C }
  - { offsetInCU: 0xFB7E, offset: 0x6F006, size: 0x8, addend: 0x0, symName: __ZNSt3__14__fs10filesystem18directory_iteratorppB8ue170006Ev, symObjAddr: 0x91C, symBinAddr: 0x10001537C, symSize: 0x28 }
  - { offsetInCU: 0xFBA4, offset: 0x6F02C, size: 0x8, addend: 0x0, symName: __ZNK13EntityManager12drawEntitiesERN2sf12RenderWindowE, symObjAddr: 0x944, symBinAddr: 0x1000153A4, symSize: 0x84 }
  - { offsetInCU: 0xFC2C, offset: 0x6F0B4, size: 0x8, addend: 0x0, symName: __ZNSt3__14__fs10filesystem18directory_iteratorC1B8ue170006EOS2_, symObjAddr: 0xAE8, symBinAddr: 0x100015428, symSize: 0x34 }
  - { offsetInCU: 0xFC61, offset: 0x6F0E9, size: 0x8, addend: 0x0, symName: __ZNSt3__14__fs10filesystem18directory_iteratorC2B8ue170006EOS2_, symObjAddr: 0xB1C, symBinAddr: 0x10001545C, symSize: 0x34 }
  - { offsetInCU: 0xFC96, offset: 0x6F11E, size: 0x8, addend: 0x0, symName: __ZNSt3__110shared_ptrINS_4__fs10filesystem12__dir_streamEEC1B8ue170006EOS4_, symObjAddr: 0xB50, symBinAddr: 0x100015490, symSize: 0x34 }
  - { offsetInCU: 0xFCCF, offset: 0x6F157, size: 0x8, addend: 0x0, symName: __ZNSt3__110shared_ptrINS_4__fs10filesystem12__dir_streamEEC2B8ue170006EOS4_, symObjAddr: 0xB84, symBinAddr: 0x1000154C4, symSize: 0x40 }
  - { offsetInCU: 0xFD08, offset: 0x6F190, size: 0x8, addend: 0x0, symName: __ZNSt3__14__fs10filesystem18directory_iteratorC2B8ue170006ERKS2_, symObjAddr: 0xBC4, symBinAddr: 0x100015504, symSize: 0x34 }
  - { offsetInCU: 0xFD3D, offset: 0x6F1C5, size: 0x8, addend: 0x0, symName: __ZNSt3__110shared_ptrINS_4__fs10filesystem12__dir_streamEEC1B8ue170006ERKS4_, symObjAddr: 0xBF8, symBinAddr: 0x100015538, symSize: 0x34 }
  - { offsetInCU: 0xFD76, offset: 0x6F1FE, size: 0x8, addend: 0x0, symName: __ZNSt3__110shared_ptrINS_4__fs10filesystem12__dir_streamEEC2B8ue170006ERKS4_, symObjAddr: 0xC2C, symBinAddr: 0x10001556C, symSize: 0x70 }
  - { offsetInCU: 0xFDAF, offset: 0x6F237, size: 0x8, addend: 0x0, symName: __ZNSt3__119__shared_weak_count12__add_sharedB8ue170006Ev, symObjAddr: 0xC9C, symBinAddr: 0x1000155DC, symSize: 0x24 }
  - { offsetInCU: 0xFDD5, offset: 0x6F25D, size: 0x8, addend: 0x0, symName: __ZNSt3__114__shared_count12__add_sharedB8ue170006Ev, symObjAddr: 0xCC0, symBinAddr: 0x100015600, symSize: 0x28 }
  - { offsetInCU: 0xFDFB, offset: 0x6F283, size: 0x8, addend: 0x0, symName: __ZNSt3__14__fs10filesystem18directory_iteratorD2B8ue170006Ev, symObjAddr: 0xD18, symBinAddr: 0x100015658, symSize: 0x2C }
  - { offsetInCU: 0xFE25, offset: 0x6F2AD, size: 0x8, addend: 0x0, symName: __ZNSt3__110shared_ptrINS_4__fs10filesystem12__dir_streamEED1B8ue170006Ev, symObjAddr: 0xD44, symBinAddr: 0x100015684, symSize: 0x2C }
  - { offsetInCU: 0xFE4F, offset: 0x6F2D7, size: 0x8, addend: 0x0, symName: __ZNSt3__110shared_ptrINS_4__fs10filesystem12__dir_streamEED2B8ue170006Ev, symObjAddr: 0xD70, symBinAddr: 0x1000156B0, symSize: 0x54 }
  - { offsetInCU: 0xFE79, offset: 0x6F301, size: 0x8, addend: 0x0, symName: __ZNSt3__119__shared_weak_count16__release_sharedB8ue170006Ev, symObjAddr: 0xDC4, symBinAddr: 0x100015704, symSize: 0x3C }
  - { offsetInCU: 0xFE9F, offset: 0x6F327, size: 0x8, addend: 0x0, symName: __ZNSt3__114__shared_count16__release_sharedB8ue170006Ev, symObjAddr: 0xE00, symBinAddr: 0x100015740, symSize: 0x7C }
  - { offsetInCU: 0xFEC5, offset: 0x6F34D, size: 0x8, addend: 0x0, symName: __ZNSt3__14__fs10filesystem18directory_iteratorC1B8ue170006Ev, symObjAddr: 0xEAC, symBinAddr: 0x1000157EC, symSize: 0x2C }
  - { offsetInCU: 0xFEEF, offset: 0x6F377, size: 0x8, addend: 0x0, symName: __ZNSt3__14__fs10filesystem18directory_iteratorC2B8ue170006Ev, symObjAddr: 0xED8, symBinAddr: 0x100015818, symSize: 0x2C }
  - { offsetInCU: 0xFF19, offset: 0x6F3A1, size: 0x8, addend: 0x0, symName: __ZNSt3__110shared_ptrINS_4__fs10filesystem12__dir_streamEEC1B8ue170006Ev, symObjAddr: 0xF04, symBinAddr: 0x100015844, symSize: 0x2C }
  - { offsetInCU: 0xFF43, offset: 0x6F3CB, size: 0x8, addend: 0x0, symName: __ZNSt3__110shared_ptrINS_4__fs10filesystem12__dir_streamEEC2B8ue170006Ev, symObjAddr: 0xF30, symBinAddr: 0x100015870, symSize: 0x1C }
  - { offsetInCU: 0xFF6D, offset: 0x6F3F5, size: 0x8, addend: 0x0, symName: __ZNKSt3__110shared_ptrINS_4__fs10filesystem12__dir_streamEE3getB8ue170006Ev, symObjAddr: 0xFC4, symBinAddr: 0x100015904, symSize: 0x18 }
  - { offsetInCU: 0xFF9D, offset: 0x6F425, size: 0x8, addend: 0x0, symName: __ZNSt3__14__fs10filesystem4pathC2B8ue170006IA5_cvEERKT_NS2_6formatE, symObjAddr: 0x26C0, symBinAddr: 0x10001591C, symSize: 0x68 }
  - { offsetInCU: 0xFFEC, offset: 0x6F474, size: 0x8, addend: 0x0, symName: __ZNSt3__14__fs10filesystem8_PathCVTIcE15__append_sourceB8ue170006IA5_cEEvRNS_12basic_stringIcNS_11char_traitsIcEENS_9allocatorIcEEEERKT_, symObjAddr: 0x2728, symBinAddr: 0x100015984, symSize: 0x4C }
  - { offsetInCU: 0x10028, offset: 0x6F4B0, size: 0x8, addend: 0x0, symName: __ZNSt3__14__fs10filesystem24__is_pathable_char_arrayIA5_cPccLb1EE13__range_beginB8ue170006EPKc, symObjAddr: 0x2774, symBinAddr: 0x1000159D0, symSize: 0x14 }
  - { offsetInCU: 0x1004B, offset: 0x6F4D3, size: 0x8, addend: 0x0, symName: __ZNSt3__14__fs10filesystem24__is_pathable_char_arrayIA5_cPccLb1EE11__range_endB8ue170006EPKc, symObjAddr: 0x2788, symBinAddr: 0x1000159E4, symSize: 0x50 }
...
